(dp1
S'DavidData_v3'
p2
(dp3
S'RI6'
p4
(dp5
S'x1.25'
p6
(dp7
S'0017'
p8
(dp9
S'labelings'
p10
(dp11
ssS'0016'
p12
(dp13
S'labelings'
p14
(dp15
ssS'0015'
p16
(dp17
S'labelings'
p18
(dp19
ssS'0014'
p20
(dp21
S'labelings'
p22
(dp23
ssS'0013'
p24
(dp25
S'labelings'
p26
(dp27
ssS'0012'
p28
(dp29
S'labelings'
p30
(dp31
ssS'0011'
p32
(dp33
S'labelings'
p34
(dp35
ssS'0010'
p36
(dp37
S'labelings'
p38
(dp39
ssS'0020'
p40
(dp41
S'labelings'
p42
(dp43
ssS'0019'
p44
(dp45
S'labelings'
p46
(dp47
ssS'0018'
p48
(dp49
S'labelings'
p50
(dp51
ssS'0007'
p52
(dp53
S'labelings'
p54
(dp55
ssS'0024'
p56
(dp57
S'labelings'
p58
(dp59
ssS'0004'
p60
(dp61
S'labelings'
p62
(dp63
ssS'0022'
p64
(dp65
S'labelings'
p66
(dp67
ssS'0005'
p68
(dp69
S'labelings'
p70
(dp71
ssS'0006'
p72
(dp73
S'labelings'
p74
(dp75
ssS'0021'
p76
(dp77
S'labelings'
p78
(dp79
ssS'0000'
p80
(dp81
S'labelings'
p82
(dp83
ssS'0001'
p84
(dp85
S'labelings'
p86
(dp87
ssS'0002'
p88
(dp89
S'labelings'
p90
(dp91
ssS'0003'
p92
(dp93
S'labelings'
p94
(dp95
ssS'0008'
p96
(dp97
S'labelings'
p98
(dp99
ssS'0009'
p100
(dp101
S'labelings'
p102
(dp103
ssS'0023'
p104
(dp105
S'labelings'
p106
(dp107
ssssS'RS76'
p108
(dp109
S'x5'
p110
(dp111
S'0014'
p112
(dp113
S'labelings'
p114
(dp115
ssssS'RS155'
p116
(dp117
S'x5'
p118
(dp119
S'0035'
p120
(dp121
S'labelings'
p122
(dp123
ssssS'RS141'
p124
(dp125
S'x5'
p126
(dp127
S'0017'
p128
(dp129
S'labelings'
p130
(dp131
S'RS141_x5_0017_sean_10202014033632.pkl'
p132
NsS'RS141_x5_0017_sean_10202014033632_preview.tif'
p133
NssS'redNissl_pipelineResults'
p134
(dp135
S'RS141_x5_0017_redNissl_fg.npy'
p136
NsS'RS141_x5_0017_redNissl_cropMask.npy'
p137
NsS'RS141_x5_0017_redNissl_texMap.tif'
p138
NsS'RS141_x5_0017_redNissl_texHist.npy'
p139
NsS'RS141_x5_0017_redNissl_centroids.npy'
p140
NsS'RS141_x5_0017_redNissl_segmentation.npy'
p141
NsS'RS141_x5_0017_redNissl_segmentation.tif'
p142
NsS'RS141_x5_0017_redNissl_texMap.npy'
p143
NsS'RS141_x5_0017_redNissl_dirHist.npy'
p144
NsS'RS141_x5_0017_redNissl_uncropMask.npy'
p145
NsS'RS141_x5_0017_redNissl_bg.npy'
p146
NsS'RS141_x5_0017_redNissl_neighbors.npy'
p147
NsS'RS141_x5_0017_redNissl_cropImg.tif'
p148
NssS'RS141_x5_0017.tif'
p149
NssS'0016'
p150
(dp151
S'labelings'
p152
(dp153
sS'redNissl_pipelineResults'
p154
(dp155
S'RS141_x5_0016_redNissl_fg.npy'
p156
NsS'RS141_x5_0016_redNissl_texMap.tif'
p157
NsS'RS141_x5_0016_redNissl_bg.npy'
p158
NsS'RS141_x5_0016_redNissl_neighbors.npy'
p159
NsS'RS141_x5_0016_redNissl_segmentation.tif'
p160
NsS'RS141_x5_0016_redNissl_cropImg.tif'
p161
NsS'RS141_x5_0016_redNissl_uncropMask.npy'
p162
NsS'RS141_x5_0016_redNissl_centroids.npy'
p163
NsS'RS141_x5_0016_redNissl_texHist.npy'
p164
NsS'RS141_x5_0016_redNissl_texMap.npy'
p165
NsS'RS141_x5_0016_redNissl_dirHist.npy'
p166
NsS'RS141_x5_0016_redNissl_cropMask.npy'
p167
NsS'RS141_x5_0016_redNissl_segmentation.npy'
p168
NssS'RS141_x5_0016.tif'
p169
NssS'0015'
p170
(dp171
S'labelings'
p172
(dp173
S'RS141_x5_0015_sean_10202014033054.pkl'
p174
NsS'RS141_x5_0015_sean_10202014033054_preview.tif'
p175
NssS'redNissl_pipelineResults'
p176
(dp177
S'RS141_x5_0015_redNissl_dirHist.npy'
p178
NsS'RS141_x5_0015_redNissl_segmentation.tif'
p179
NsS'RS141_x5_0015_redNissl_texHist.npy'
p180
NsS'RS141_x5_0015_redNissl_bg.npy'
p181
NsS'RS141_x5_0015_redNissl_texMap.npy'
p182
NsS'RS141_x5_0015_redNissl_neighbors.npy'
p183
NsS'RS141_x5_0015_redNissl_uncropMask.npy'
p184
NsS'RS141_x5_0015_redNissl_texMap.tif'
p185
NsS'RS141_x5_0015_redNissl_fg.npy'
p186
NsS'RS141_x5_0015_redNissl_segmentation.npy'
p187
NsS'RS141_x5_0015_redNissl_cropImg.tif'
p188
NsS'RS141_x5_0015_redNissl_cropMask.npy'
p189
NssS'RS141_x5_0015.tif'
p190
NssS'0014'
p191
(dp192
S'labelings'
p193
(dp194
sS'redNissl_pipelineResults'
p195
(dp196
S'RS141_x5_0014_redNissl_segmentation.npy'
p197
NsS'RS141_x5_0014_redNissl_bg.npy'
p198
NsS'RS141_x5_0014_redNissl_cropImg.tif'
p199
NsS'RS141_x5_0014_redNissl_fg.npy'
p200
NsS'RS141_x5_0014_redNissl_cropMask.npy'
p201
NsS'RS141_x5_0014_redNissl_uncropMask.npy'
p202
NsS'RS141_x5_0014_redNissl_texHist.npy'
p203
NsS'RS141_x5_0014_redNissl_texMap.tif'
p204
NsS'RS141_x5_0014_redNissl_neighbors.npy'
p205
NsS'RS141_x5_0014_redNissl_dirHist.npy'
p206
NsS'RS141_x5_0014_redNissl_texMap.npy'
p207
NsS'RS141_x5_0014_redNissl_segmentation.tif'
p208
NssS'RS141_x5_0014.tif'
p209
NssS'0013'
p210
(dp211
S'RS141_x5_0013.tif'
p212
NsS'labelings'
p213
(dp214
S'RS141_x5_0013_sean_10202014032044.pkl'
p215
NsS'RS141_x5_0013_sean_10202014032044_preview.tif'
p216
NssS'redNissl_pipelineResults'
p217
(dp218
S'RS141_x5_0013_redNissl_cropMask.npy'
p219
NsS'RS141_x5_0013_redNissl_neighbors.npy'
p220
NsS'RS141_x5_0013_redNissl_cropImg.tif'
p221
NsS'RS141_x5_0013_redNissl_texMap.npy'
p222
NsS'RS141_x5_0013_redNissl_texHist.npy'
p223
NsS'RS141_x5_0013_redNissl_dirHist.npy'
p224
NsS'RS141_x5_0013_redNissl_uncropMask.npy'
p225
NsS'RS141_x5_0013_redNissl_texMap.tif'
p226
NsS'RS141_x5_0013_redNissl_fg.npy'
p227
NsS'RS141_x5_0013_redNissl_segmentation.tif'
p228
NsS'RS141_x5_0013_redNissl_segmentation.npy'
p229
NsS'RS141_x5_0013_redNissl_bg.npy'
p230
NsssS'0012'
p231
(dp232
S'labelings'
p233
(dp234
sS'RS141_x5_0012.tif'
p235
NsS'redNissl_pipelineResults'
p236
(dp237
S'RS141_x5_0012_redNissl_segmentation.npy'
p238
NsS'RS141_x5_0012_redNissl_uncropMask.npy'
p239
NsS'RS141_x5_0012_redNissl_segmentation.tif'
p240
NsS'RS141_x5_0012_redNissl_texMap.tif'
p241
NsS'RS141_x5_0012_redNissl_dirHist.npy'
p242
NsS'RS141_x5_0012_redNissl_texHist.npy'
p243
NsS'RS141_x5_0012_redNissl_bg.npy'
p244
NsS'RS141_x5_0012_redNissl_cropImg.tif'
p245
NsS'RS141_x5_0012_redNissl_texMap.npy'
p246
NsS'RS141_x5_0012_redNissl_neighbors.npy'
p247
NsS'RS141_x5_0012_redNissl_fg.npy'
p248
NsS'RS141_x5_0012_redNissl_cropMask.npy'
p249
NsssS'0011'
p250
(dp251
S'labelings'
p252
(dp253
S'RS141_x5_0011_sean_10202014031207.pkl'
p254
NsS'RS141_x5_0011_sean_10202014031207_preview.tif'
p255
NssS'redNissl_pipelineResults'
p256
(dp257
S'RS141_x5_0011_redNissl_cropImg.tif'
p258
NsS'RS141_x5_0011_redNissl_dirHist.npy'
p259
NsS'RS141_x5_0011_redNissl_texHist.npy'
p260
NsS'RS141_x5_0011_redNissl_cropMask.npy'
p261
NsS'RS141_x5_0011_redNissl_bg.npy'
p262
NsS'RS141_x5_0011_redNissl_segmentation.tif'
p263
NsS'RS141_x5_0011_redNissl_texMap.npy'
p264
NsS'RS141_x5_0011_redNissl_uncropMask.npy'
p265
NsS'RS141_x5_0011_redNissl_segmentation.npy'
p266
NsS'RS141_x5_0011_redNissl_neighbors.npy'
p267
NsS'RS141_x5_0011_redNissl_fg.npy'
p268
NsS'RS141_x5_0011_redNissl_texMap.tif'
p269
NssS'RS141_x5_0011.tif'
p270
NssS'0010'
p271
(dp272
S'labelings'
p273
(dp274
sS'redNissl_pipelineResults'
p275
(dp276
S'RS141_x5_0010_redNissl_texMap.npy'
p277
NsS'RS141_x5_0010_redNissl_texHist.npy'
p278
NsS'RS141_x5_0010_redNissl_dirHist.npy'
p279
NsS'RS141_x5_0010_redNissl_neighbors.npy'
p280
NsS'RS141_x5_0010_redNissl_uncropMask.npy'
p281
NsS'RS141_x5_0010_redNissl_cropMask.npy'
p282
NsS'RS141_x5_0010_redNissl_fg.npy'
p283
NsS'RS141_x5_0010_redNissl_bg.npy'
p284
NsS'RS141_x5_0010_redNissl_segmentation.npy'
p285
NsS'RS141_x5_0010_redNissl_segmentation.tif'
p286
NsS'RS141_x5_0010_redNissl_texMap.tif'
p287
NsS'RS141_x5_0010_redNissl_cropImg.tif'
p288
NssS'RS141_x5_0010.tif'
p289
NssS'0020'
p290
(dp291
S'labelings'
p292
(dp293
sS'redNissl_pipelineResults'
p294
(dp295
S'RS141_x5_0020_redNissl_neighbors.npy'
p296
NsS'RS141_x5_0020_redNissl_fg.npy'
p297
NsS'RS141_x5_0020_redNissl_segmentation.tif'
p298
NsS'RS141_x5_0020_redNissl_texMap.tif'
p299
NsS'RS141_x5_0020_redNissl_dirHist.npy'
p300
NsS'RS141_x5_0020_redNissl_texMap.npy'
p301
NsS'RS141_x5_0020_redNissl_uncropMask.npy'
p302
NsS'RS141_x5_0020_redNissl_texHist.npy'
p303
NsS'RS141_x5_0020_redNissl_bg.npy'
p304
NsS'RS141_x5_0020_redNissl_cropImg.tif'
p305
NsS'RS141_x5_0020_redNissl_cropMask.npy'
p306
NsS'RS141_x5_0020_redNissl_centroids.npy'
p307
NsS'RS141_x5_0020_redNissl_segmentation.npy'
p308
NssS'RS141_x5_0020.tif'
p309
NssS'0019'
p310
(dp311
S'labelings'
p312
(dp313
S'RS141_x5_0019_sean_10202014034426.pkl'
p314
NsS'RS141_x5_0019_sean_10202014034426_preview.tif'
p315
NssS'redNissl_pipelineResults'
p316
(dp317
S'RS141_x5_0019_redNissl_centroids.npy'
p318
NsS'RS141_x5_0019_redNissl_neighbors.npy'
p319
NsS'RS141_x5_0019_redNissl_fg.npy'
p320
NsS'RS141_x5_0019_redNissl_segmentation.tif'
p321
NsS'RS141_x5_0019_redNissl_texMap.tif'
p322
NsS'RS141_x5_0019_redNissl_cropImg.tif'
p323
NsS'RS141_x5_0019_redNissl_texMap.npy'
p324
NsS'RS141_x5_0019_redNissl_uncropMask.npy'
p325
NsS'RS141_x5_0019_redNissl_texHist.npy'
p326
NsS'RS141_x5_0019_redNissl_bg.npy'
p327
NsS'RS141_x5_0019_redNissl_cropMask.npy'
p328
NsS'RS141_x5_0019_redNissl_dirHist.npy'
p329
NsS'RS141_x5_0019_redNissl_segmentation.npy'
p330
NssS'RS141_x5_0019.tif'
p331
NssS'0018'
p332
(dp333
S'labelings'
p334
(dp335
sS'redNissl_pipelineResults'
p336
(dp337
S'RS141_x5_0018_redNissl_uncropMask.npy'
p338
NsS'RS141_x5_0018_redNissl_texMap.tif'
p339
NsS'RS141_x5_0018_redNissl_cropImg.tif'
p340
NsS'RS141_x5_0018_redNissl_centroids.npy'
p341
NsS'RS141_x5_0018_redNissl_neighbors.npy'
p342
NsS'RS141_x5_0018_redNissl_segmentation.tif'
p343
NsS'RS141_x5_0018_redNissl_cropMask.npy'
p344
NsS'RS141_x5_0018_redNissl_texMap.npy'
p345
NsS'RS141_x5_0018_redNissl_texHist.npy'
p346
NsS'RS141_x5_0018_redNissl_fg.npy'
p347
NsS'RS141_x5_0018_redNissl_dirHist.npy'
p348
NsS'RS141_x5_0018_redNissl_bg.npy'
p349
NsS'RS141_x5_0018_redNissl_segmentation.npy'
p350
NssS'RS141_x5_0018.tif'
p351
NssS'0007'
p352
(dp353
S'labelings'
p354
(dp355
S'RS141_x5_0007_sean_10202014030221.pkl'
p356
NsS'RS141_x5_0007_sean_10202014030221_preview.tif'
p357
NssS'redNissl_pipelineResults'
p358
(dp359
S'RS141_x5_0007_redNissl_uncropMask.npy'
p360
NsS'RS141_x5_0007_redNissl_texMap.tif'
p361
NsS'RS141_x5_0007_redNissl_cropImg.tif'
p362
NsS'RS141_x5_0007_redNissl_neighbors.npy'
p363
NsS'RS141_x5_0007_redNissl_segmentation.tif'
p364
NsS'RS141_x5_0007_redNissl_cropMask.npy'
p365
NsS'RS141_x5_0007_redNissl_texMap.npy'
p366
NsS'RS141_x5_0007_redNissl_texHist.npy'
p367
NsS'RS141_x5_0007_redNissl_fg.npy'
p368
NsS'RS141_x5_0007_redNissl_dirHist.npy'
p369
NsS'RS141_x5_0007_redNissl_bg.npy'
p370
NsS'RS141_x5_0007_redNissl_segmentation.npy'
p371
NssS'RS141_x5_0007.tif'
p372
NssS'0024'
p373
(dp374
S'labelings'
p375
(dp376
sS'redNissl_pipelineResults'
p377
(dp378
S'RS141_x5_0024_redNissl_segmentation.tif'
p379
NsS'RS141_x5_0024_redNissl_segmentation.npy'
p380
NsS'RS141_x5_0024_redNissl_cropImg.tif'
p381
NsS'RS141_x5_0024_redNissl_texMap.npy'
p382
NsS'RS141_x5_0024_redNissl_uncropMask.npy'
p383
NsS'RS141_x5_0024_redNissl_texHist.npy'
p384
NsS'RS141_x5_0024_redNissl_dirHist.npy'
p385
NsS'RS141_x5_0024_redNissl_cropMask.npy'
p386
NsS'RS141_x5_0024_redNissl_bg.npy'
p387
NsS'RS141_x5_0024_redNissl_neighbors.npy'
p388
NsS'RS141_x5_0024_redNissl_centroids.npy'
p389
NsS'RS141_x5_0024_redNissl_texMap.tif'
p390
NsS'RS141_x5_0024_redNissl_fg.npy'
p391
NssS'RS141_x5_0024.tif'
p392
NssS'0004'
p393
(dp394
S'RS141_x5_0004.tif'
p395
NsS'labelings'
p396
(dp397
S'RS141_x5_0004_sean_10202014025612_preview.tif'
p398
NsS'RS141_x5_0004_sean_10202014025612.pkl'
p399
NsS'RS141_x5_0004_sean_10202014025158.pkl'
p400
NsS'RS141_x5_0004_sean_10202014025158_preview.tif'
p401
NssS'redNissl_pipelineResults'
p402
(dp403
S'RS141_x5_0004_redNissl_segmentation.npy'
p404
NsS'RS141_x5_0004_redNissl_neighbors.npy'
p405
NsS'RS141_x5_0004_redNissl_bg.npy'
p406
NsS'RS141_x5_0004_redNissl_cropImg.tif'
p407
NsS'RS141_x5_0004_redNissl_segmentation.tif'
p408
NsS'RS141_x5_0004_redNissl_cropMask.npy'
p409
NsS'RS141_x5_0004_redNissl_dirHist.npy'
p410
NsS'RS141_x5_0004_redNissl_texMap.tif'
p411
NsS'RS141_x5_0004_redNissl_texMap.npy'
p412
NsS'RS141_x5_0004_redNissl_texHist.npy'
p413
NsS'RS141_x5_0004_redNissl_fg.npy'
p414
NsS'RS141_x5_0004_redNissl_uncropMask.npy'
p415
NsssS'0022'
p416
(dp417
S'RS141_x5_0022.tif'
p418
NsS'labelings'
p419
(dp420
sS'redNissl_pipelineResults'
p421
(dp422
S'RS141_x5_0022_redNissl_segmentation.npy'
p423
NsS'RS141_x5_0022_redNissl_centroids.npy'
p424
NsS'RS141_x5_0022_redNissl_cropMask.npy'
p425
NsS'RS141_x5_0022_redNissl_bg.npy'
p426
NsS'RS141_x5_0022_redNissl_cropImg.tif'
p427
NsS'RS141_x5_0022_redNissl_dirHist.npy'
p428
NsS'RS141_x5_0022_redNissl_neighbors.npy'
p429
NsS'RS141_x5_0022_redNissl_segmentation.tif'
p430
NsS'RS141_x5_0022_redNissl_texMap.tif'
p431
NsS'RS141_x5_0022_redNissl_texMap.npy'
p432
NsS'RS141_x5_0022_redNissl_texHist.npy'
p433
NsS'RS141_x5_0022_redNissl_fg.npy'
p434
NsS'RS141_x5_0022_redNissl_uncropMask.npy'
p435
NsssS'0005'
p436
(dp437
S'labelings'
p438
(dp439
S'RS141_x5_0005_sean_10202014025633_preview.tif'
p440
NsS'RS141_x5_0005_sean_10202014025633.pkl'
p441
NsS'RS141_x5_0005_sean_10202014025325_preview.tif'
p442
NsS'RS141_x5_0005_sean_10202014025325.pkl'
p443
NssS'RS141_x5_0005.tif'
p444
NsS'redNissl_pipelineResults'
p445
(dp446
S'RS141_x5_0005_redNissl_cropMask.npy'
p447
NsS'RS141_x5_0005_redNissl_segmentation.tif'
p448
NsS'RS141_x5_0005_redNissl_dirHist.npy'
p449
NsS'RS141_x5_0005_redNissl_texHist.npy'
p450
NsS'RS141_x5_0005_redNissl_segmentation.npy'
p451
NsS'RS141_x5_0005_redNissl_texMap.npy'
p452
NsS'RS141_x5_0005_redNissl_texMap.tif'
p453
NsS'RS141_x5_0005_redNissl_bg.npy'
p454
NsS'RS141_x5_0005_redNissl_cropImg.tif'
p455
NsS'RS141_x5_0005_redNissl_neighbors.npy'
p456
NsS'RS141_x5_0005_redNissl_fg.npy'
p457
NsS'RS141_x5_0005_redNissl_uncropMask.npy'
p458
NsssS'0006'
p459
(dp460
S'labelings'
p461
(dp462
sS'redNissl_pipelineResults'
p463
(dp464
S'RS141_x5_0006_redNissl_neighbors.npy'
p465
NsS'RS141_x5_0006_redNissl_fg.npy'
p466
NsS'RS141_x5_0006_redNissl_segmentation.tif'
p467
NsS'RS141_x5_0006_redNissl_texMap.tif'
p468
NsS'RS141_x5_0006_redNissl_cropImg.tif'
p469
NsS'RS141_x5_0006_redNissl_texMap.npy'
p470
NsS'RS141_x5_0006_redNissl_uncropMask.npy'
p471
NsS'RS141_x5_0006_redNissl_cropMask.npy'
p472
NsS'RS141_x5_0006_redNissl_bg.npy'
p473
NsS'RS141_x5_0006_redNissl_texHist.npy'
p474
NsS'RS141_x5_0006_redNissl_dirHist.npy'
p475
NsS'RS141_x5_0006_redNissl_segmentation.npy'
p476
NssS'RS141_x5_0006.tif'
p477
NssS'0021'
p478
(dp479
S'labelings'
p480
(dp481
S'RS141_x5_0021_sean_10202014035234_preview.tif'
p482
NsS'RS141_x5_0021_sean_10202014035234.pkl'
p483
NssS'redNissl_pipelineResults'
p484
(dp485
S'RS141_x5_0021_redNissl_uncropMask.npy'
p486
NsS'RS141_x5_0021_redNissl_texMap.tif'
p487
NsS'RS141_x5_0021_redNissl_cropImg.tif'
p488
NsS'RS141_x5_0021_redNissl_centroids.npy'
p489
NsS'RS141_x5_0021_redNissl_neighbors.npy'
p490
NsS'RS141_x5_0021_redNissl_segmentation.tif'
p491
NsS'RS141_x5_0021_redNissl_cropMask.npy'
p492
NsS'RS141_x5_0021_redNissl_texMap.npy'
p493
NsS'RS141_x5_0021_redNissl_texHist.npy'
p494
NsS'RS141_x5_0021_redNissl_fg.npy'
p495
NsS'RS141_x5_0021_redNissl_dirHist.npy'
p496
NsS'RS141_x5_0021_redNissl_bg.npy'
p497
NsS'RS141_x5_0021_redNissl_segmentation.npy'
p498
NssS'RS141_x5_0021.tif'
p499
NssS'0000'
p500
(dp501
S'labelings'
p502
(dp503
S'RS141_x5_0000_sean_10202014023824.pkl'
p504
NsS'RS141_x5_0000_sean_10202014025457.pkl'
p505
NsS'RS141_x5_0000_sean_10202014024925.pkl'
p506
NsS'RS141_x5_0000_sean_10202014024233_preview.tif'
p507
NsS'RS141_x5_0000_sean_10202014023824_preview.tif'
p508
NsS'RS141_x5_0000_sean_10202014024925_preview.tif'
p509
NsS'RS141_x5_0000_sean_10202014025457_preview.tif'
p510
NsS'RS141_x5_0000_sean_10202014024233.pkl'
p511
NssS'redNissl_pipelineResults'
p512
(dp513
S'RS141_x5_0000_redNissl_texHist.npy'
p514
NsS'RS141_x5_0000_redNissl_cropImg.tif'
p515
NsS'RS141_x5_0000_redNissl_texMap.npy'
p516
NsS'RS141_x5_0000_redNissl_fg.npy'
p517
NsS'RS141_x5_0000_redNissl_segmentation.tif'
p518
NsS'RS141_x5_0000_redNissl_uncropMask.npy'
p519
NsS'RS141_x5_0000_redNissl_cropMask.npy'
p520
NsS'RS141_x5_0000_redNissl_texMap.tif'
p521
NsS'RS141_x5_0000_redNissl_dirHist.npy'
p522
NsS'RS141_x5_0000_redNissl_segmentation.npy'
p523
NsS'RS141_x5_0000_redNissl_neighbors.npy'
p524
NsS'RS141_x5_0000_redNissl_bg.npy'
p525
NssS'RS141_x5_0000.tif'
p526
NssS'0001'
p527
(dp528
S'labelings'
p529
(dp530
S'RS141_x5_0001_sigboost_10142014120358_preview.tif'
p531
NsS'RS141_x5_0001_sigboost_10142014120358.pkl'
p532
NsS'RS141_x5_0001_sean_10162014041958.pkl'
p533
NsS'RS141_x5_0001_sigboost_10152014060643.pkl'
p534
NsS'RS141_x5_0001_sigboost_10162014041242_preview.tif'
p535
NsS'RS141_x5_0001_sigboost_10162014041242.pkl'
p536
NsS'RS141_x5_0001_sigboost_10152014060755.pkl'
p537
NsS'RS141_x5_0001_sean_10202014025519_preview.tif'
p538
NsS'RS141_x5_0001_anon_10132014165928.pkl'
p539
NsS'RS141_x5_0001_sigboost_10162014034148.pkl'
p540
NsS'RS141_x5_0001_sean_10162014044711_preview.tif'
p541
NsS'RS141_x5_0001_sean_10162014041655_preview.tif'
p542
NsS'RS141_x5_0001_sean_10162014041958_preview.tif'
p543
NsS'RS141_x5_0001_sean_10202014024255.pkl'
p544
NsS'RS141_x5_0001_sigboost_10152014060755_preview.tif'
p545
NsS'RS141_x5_0001_sean_10162014041655.pkl'
p546
NsS'RS141_x5_0001_sean_10202014023846.pkl'
p547
NsS'RS141_x5_0001_sigboost_10152014060815_preview.tif'
p548
NsS'RS141_x5_0001_sigboost_10152014060815.pkl'
p549
NsS'RS141_x5_0001_sean_10202014023846_preview.tif'
p550
NsS'RS141_x5_0001_sean_10162014041801.pkl'
p551
NsS'RS141_x5_0001_sigboost_10152014060643_preview.tif'
p552
NsS'RS141_x5_0001_sigboost_10162014034148_preview.tif'
p553
NsS'RS141_x5_0001_sean_10162014044711.pkl'
p554
NsS'RS141_x5_0001_sigboost_10152014060728_preview.tif'
p555
NsS'RS141_x5_0001_sean_10132014185123.pkl'
p556
NsS'RS141_x5_0001_sean_10162014041801_preview.tif'
p557
NsS'RS141_x5_0001_sean_10202014024948.pkl'
p558
NsS'RS141_x5_0001_sean_10202014025519.pkl'
p559
NsS'RS141_x5_0001_sean_10202014024255_preview.tif'
p560
NsS'RS141_x5_0001_sean_10202014024948_preview.tif'
p561
NsS'RS141_x5_0001_sigboost_10152014060815_preview_resized.tif'
p562
NsS'RS141_x5_0001_sigboost_10152014060728.pkl'
p563
NsS'RS141_x5_0001_labelnames.json'
p564
NsS'RS141_x5_0001_sean_10132014185123_preview_resized.png'
p565
NsS'RS141_x5_0001_sean_10132014185123_preview.png'
p566
NssS'redNissl_pipelineResults'
p567
(dp568
S'RS141_x5_0001_redNissl_cropMask.npy'
p569
NsS'RS141_x5_0001_redNissl_texMap.npy'
p570
NsS'RS141_x5_0001_redNissl_uncropMask.npy'
p571
NsS'RS141_x5_0001_redNissl_texMap.tif'
p572
NsS'RS141_x5_0001_redNissl_centroids.npy'
p573
NsS'RS141_x5_0001_redNissl_texHist.npy'
p574
NsS'RS141_x5_0001_redNissl_bg.npy'
p575
NsS'RS141_x5_0001_redNissl_neighbors.npy'
p576
NsS'RS141_x5_0001_redNissl_dirHist.npy'
p577
NsS'RS141_x5_0001_redNissl_cropImg.tif'
p578
NsS'RS141_x5_0001_redNissl_fg.npy'
p579
NsS'RS141_x5_0001_redNissl_segmentation.tif'
p580
NsS'RS141_x5_0001_redNissl_segmentation.npy'
p581
NsS'RS141_x5_0001_redNissl_segmentation_vertical.npy'
p582
NssS'RS141_x5_0001.tif'
p583
NssS'0002'
p584
(dp585
S'labelings'
p586
(dp587
S'RS141_x5_0002_sigboost_10152014135719.pkl'
p588
NsS'RS141_x5_0002_sigboost_10152014135719_preview.tif'
p589
NsS'RS141_x5_0002_sigboost_10152014135719_preview_resized.tif'
p590
NssS'redNissl_pipelineResults'
p591
(dp592
S'RS141_x5_0002_redNissl_segmentation.tif'
p593
NsS'141_x5_0002_redNissl_texMap.npy'
p594
NsS'RS141_x5_0002_redNissl_segmentation.npy'
p595
NsS'RS141_x5_0002_redNissl_cropImg.tif'
p596
NsS'RS141_x5_0002_redNissl_texMap.npy'
p597
NsS'RS141_x5_0002_redNissl_uncropMask.npy'
p598
NsS'RS141_x5_0002_redNissl_texHist.npy'
p599
NsS'RS141_x5_0002_redNissl_cropMask.npy'
p600
NsS'RS141_x5_0002_redNissl_bg.npy'
p601
NsS'RS141_x5_0002_redNissl_neighbors.npy'
p602
NsS'RS141_x5_0002_redNissl_dirHist.npy'
p603
NsS'RS141_x5_0002_redNissl_texMap.tif'
p604
NsS'RS141_x5_0002_redNissl_fg.npy'
p605
NssS'RS141_x5_0002.tif'
p606
NssS'0003'
p607
(dp608
S'labelings'
p609
(dp610
S'RS141_x5_0003_sean_10202014025547_preview.tif'
p611
NsS'RS141_x5_0003_sean_10202014024442_preview.tif'
p612
NsS'RS141_x5_0003_sean_10202014025015_preview.tif'
p613
NsS'RS141_x5_0003_sean_10202014025547.pkl'
p614
NsS'RS141_x5_0003_sean_10202014024442.pkl'
p615
NsS'RS141_x5_0003_sean_10202014025015.pkl'
p616
NssS'redNissl_pipelineResults'
p617
(dp618
S'RS141_x5_0003_redNissl_neighbors.npy'
p619
NsS'RS141_x5_0003_redNissl_fg.npy'
p620
NsS'RS141_x5_0003_redNissl_uncropMask.npy'
p621
NsS'RS141_x5_0003_redNissl_cropImg.tif'
p622
NsS'RS141_x5_0003_redNissl_segmentation.tif'
p623
NsS'RS141_x5_0003_redNissl_texHist.npy'
p624
NsS'RS141_x5_0003_redNissl_bg.npy'
p625
NsS'RS141_x5_0003_redNissl_segmentation.npy'
p626
NsS'RS141_x5_0003_redNissl_texMap.npy'
p627
NsS'RS141_x5_0003_redNissl_texMap.tif'
p628
NsS'RS141_x5_0003_redNissl_dirHist.npy'
p629
NsS'RS141_x5_0003_redNissl_cropMask.npy'
p630
NssS'RS141_x5_0003.tif'
p631
NssS'0008'
p632
(dp633
S'labelings'
p634
(dp635
sS'redNissl_pipelineResults'
p636
(dp637
S'RS141_x5_0008_redNissl_fg.npy'
p638
NsS'RS141_x5_0008_redNissl_neighbors.npy'
p639
NsS'RS141_x5_0008_redNissl_texMap.tif'
p640
NsS'RS141_x5_0008_redNissl_texHist.npy'
p641
NsS'RS141_x5_0008_redNissl_segmentation.npy'
p642
NsS'RS141_x5_0008_redNissl_segmentation.tif'
p643
NsS'RS141_x5_0008_redNissl_texMap.npy'
p644
NsS'RS141_x5_0008_redNissl_dirHist.npy'
p645
NsS'RS141_x5_0008_redNissl_uncropMask.npy'
p646
NsS'RS141_x5_0008_redNissl_bg.npy'
p647
NsS'RS141_x5_0008_redNissl_cropMask.npy'
p648
NsS'RS141_x5_0008_redNissl_cropImg.tif'
p649
NssS'RS141_x5_0008.tif'
p650
NssS'0009'
p651
(dp652
S'labelings'
p653
(dp654
S'RS141_x5_0009_sean_10202014030857_preview.tif'
p655
NsS'RS141_x5_0009_sean_10202014030857.pkl'
p656
NssS'redNissl_pipelineResults'
p657
(dp658
S'RS141_x5_0009_redNissl_fg.npy'
p659
NsS'RS141_x5_0009_redNissl_texMap.tif'
p660
NsS'RS141_x5_0009_redNissl_bg.npy'
p661
NsS'RS141_x5_0009_redNissl_segmentation.tif'
p662
NsS'RS141_x5_0009_redNissl_texMap.npy'
p663
NsS'RS141_x5_0009_redNissl_neighbors.npy'
p664
NsS'RS141_x5_0009_redNissl_cropImg.tif'
p665
NsS'RS141_x5_0009_redNissl_uncropMask.npy'
p666
NsS'RS141_x5_0009_redNissl_texHist.npy'
p667
NsS'RS141_x5_0009_redNissl_segmentation.npy'
p668
NsS'RS141_x5_0009_redNissl_dirHist.npy'
p669
NsS'RS141_x5_0009_redNissl_cropMask.npy'
p670
NssS'RS141_x5_0009.tif'
p671
NssS'0023'
p672
(dp673
S'labelings'
p674
(dp675
S'RS141_x5_0023_sean_10202014040056_preview.tif'
p676
NsS'RS141_x5_0023_sean_10202014040056.pkl'
p677
NssS'RS141_x5_0023.tif'
p678
NsS'redNissl_pipelineResults'
p679
(dp680
S'RS141_x5_0023_redNissl_cropMask.npy'
p681
NsS'RS141_x5_0023_redNissl_segmentation.tif'
p682
NsS'RS141_x5_0023_redNissl_dirHist.npy'
p683
NsS'RS141_x5_0023_redNissl_texHist.npy'
p684
NsS'RS141_x5_0023_redNissl_segmentation.npy'
p685
NsS'RS141_x5_0023_redNissl_uncropMask.npy'
p686
NsS'RS141_x5_0023_redNissl_centroids.npy'
p687
NsS'RS141_x5_0023_redNissl_texMap.tif'
p688
NsS'RS141_x5_0023_redNissl_bg.npy'
p689
NsS'RS141_x5_0023_redNissl_cropImg.tif'
p690
NsS'RS141_x5_0023_redNissl_neighbors.npy'
p691
NsS'RS141_x5_0023_redNissl_fg.npy'
p692
NsS'RS141_x5_0023_redNissl_texMap.npy'
p693
NssssS'x20'
p694
(dp695
S'0015'
p696
(dp697
S'labelings'
p698
(dp699
sssS'x1.25'
p700
(dp701
S'0017'
p702
(dp703
S'labelings'
p704
(dp705
ssS'0016'
p706
(dp707
S'labelings'
p708
(dp709
ssS'0015'
p710
(dp711
S'labelings'
p712
(dp713
ssS'0014'
p714
(dp715
S'labelings'
p716
(dp717
ssS'0013'
p718
(dp719
S'labelings'
p720
(dp721
ssS'0012'
p722
(dp723
S'labelings'
p724
(dp725
ssS'0011'
p726
(dp727
S'labelings'
p728
(dp729
ssS'0010'
p730
(dp731
S'labelings'
p732
(dp733
ssS'0020'
p734
(dp735
S'labelings'
p736
(dp737
ssS'0019'
p738
(dp739
S'labelings'
p740
(dp741
ssS'0018'
p742
(dp743
S'labelings'
p744
(dp745
ssS'0007'
p746
(dp747
S'labelings'
p748
(dp749
ssS'0024'
p750
(dp751
S'labelings'
p752
(dp753
ssS'0004'
p754
(dp755
S'labelings'
p756
(dp757
ssS'0022'
p758
(dp759
S'labelings'
p760
(dp761
ssS'0005'
p762
(dp763
S'labelings'
p764
(dp765
ssS'0006'
p766
(dp767
S'labelings'
p768
(dp769
ssS'0021'
p770
(dp771
S'labelings'
p772
(dp773
ssS'0000'
p774
(dp775
S'labelings'
p776
(dp777
ssS'0001'
p778
(dp779
S'labelings'
p780
(dp781
ssS'0002'
p782
(dp783
S'labelings'
p784
(dp785
ssS'0003'
p786
(dp787
S'labelings'
p788
(dp789
ssS'0008'
p790
(dp791
S'labelings'
p792
(dp793
ssS'0009'
p794
(dp795
S'labelings'
p796
(dp797
ssS'0023'
p798
(dp799
S'labelings'
p800
(dp801
sssss.