(dp1
S'DavidData2014v3'
p2
(dp3
S'RS139'
p4
(dp5
S'x1.25'
p6
(dp7
S'0017'
p8
(dp9
S'labelings'
p10
(dp11
ssS'0022'
p12
(dp13
S'labelings'
p14
(dp15
ssS'0015'
p16
(dp17
S'labelings'
p18
(dp19
ssS'0014'
p20
(dp21
S'labelings'
p22
(dp23
ssS'0013'
p24
(dp25
S'labelings'
p26
(dp27
ssS'0012'
p28
(dp29
S'labelings'
p30
(dp31
ssS'0011'
p32
(dp33
S'labelings'
p34
(dp35
ssS'0005'
p36
(dp37
S'labelings'
p38
(dp39
ssS'0031'
p40
(dp41
S'labelings'
p42
(dp43
ssS'0006'
p44
(dp45
S'labelings'
p46
(dp47
ssS'0033'
p48
(dp49
S'labelings'
p50
(dp51
ssS'0032'
p52
(dp53
S'labelings'
p54
(dp55
ssS'0021'
p56
(dp57
S'labelings'
p58
(dp59
ssS'0010'
p60
(dp61
S'labelings'
p62
(dp63
ssS'0026'
p64
(dp65
S'labelings'
p66
(dp67
ssS'0001'
p68
(dp69
S'labelings'
p70
(dp71
ssS'0024'
p72
(dp73
S'labelings'
p74
(dp75
ssS'0003'
p76
(dp77
S'labelings'
p78
(dp79
ssS'0004'
p80
(dp81
S'labelings'
p82
(dp83
ssS'0023'
p84
(dp85
S'labelings'
p86
(dp87
ssS'0020'
p88
(dp89
S'labelings'
p90
(dp91
ssS'0007'
p92
(dp93
S'labelings'
p94
(dp95
ssS'0000'
p96
(dp97
S'labelings'
p98
(dp99
ssS'0027'
p100
(dp101
S'labelings'
p102
(dp103
ssS'0002'
p104
(dp105
S'labelings'
p106
(dp107
ssS'0025'
p108
(dp109
S'labelings'
p110
(dp111
ssS'0028'
p112
(dp113
S'labelings'
p114
(dp115
ssS'0029'
p116
(dp117
S'labelings'
p118
(dp119
ssS'0008'
p120
(dp121
S'labelings'
p122
(dp123
ssS'0009'
p124
(dp125
S'labelings'
p126
(dp127
ssS'0030'
p128
(dp129
S'labelings'
p130
(dp131
ssS'0019'
p132
(dp133
S'labelings'
p134
(dp135
ssS'0018'
p136
(dp137
S'labelings'
p138
(dp139
ssS'0016'
p140
(dp141
S'labelings'
p142
(dp143
sssS'x20'
p144
(dp145
S'0017'
p146
(dp147
S'labelings'
p148
(dp149
ssS'0022'
p150
(dp151
S'labelings'
p152
(dp153
ssS'0015'
p154
(dp155
S'labelings'
p156
(dp157
ssS'0014'
p158
(dp159
S'labelings'
p160
(dp161
ssS'0013'
p162
(dp163
S'labelings'
p164
(dp165
ssS'0012'
p166
(dp167
S'labelings'
p168
(dp169
ssS'0011'
p170
(dp171
S'labelings'
p172
(dp173
ssS'0005'
p174
(dp175
S'labelings'
p176
(dp177
ssS'0006'
p178
(dp179
S'labelings'
p180
(dp181
ssS'0019'
p182
(dp183
S'labelings'
p184
(dp185
ssS'0018'
p186
(dp187
S'labelings'
p188
(dp189
ssS'0021'
p190
(dp191
S'labelings'
p192
(dp193
ssS'0010'
p194
(dp195
S'labelings'
p196
(dp197
ssS'0026'
p198
(dp199
S'labelings'
p200
(dp201
ssS'0001'
p202
(dp203
S'labelings'
p204
(dp205
ssS'0024'
p206
(dp207
S'labelings'
p208
(dp209
ssS'0003'
p210
(dp211
S'labelings'
p212
(dp213
ssS'0004'
p214
(dp215
S'labelings'
p216
(dp217
ssS'0023'
p218
(dp219
S'labelings'
p220
(dp221
ssS'0020'
p222
(dp223
S'labelings'
p224
(dp225
ssS'0007'
p226
(dp227
S'labelings'
p228
(dp229
ssS'0000'
p230
(dp231
S'labelings'
p232
(dp233
ssS'0027'
p234
(dp235
S'labelings'
p236
(dp237
ssS'0002'
p238
(dp239
S'labelings'
p240
(dp241
ssS'0025'
p242
(dp243
S'labelings'
p244
(dp245
ssS'0028'
p246
(dp247
S'labelings'
p248
(dp249
ssS'0008'
p250
(dp251
S'labelings'
p252
(dp253
ssS'0009'
p254
(dp255
S'labelings'
p256
(dp257
ssS'0016'
p258
(dp259
S'labelings'
p260
(dp261
sssS'x5'
p262
(dp263
S'0017'
p264
(dp265
S'labelings'
p266
(dp267
sS'RS139_x5_0017.tif'
p268
NsS'mask.tif'
p269
NssS'0022'
p270
(dp271
S'labelings'
p272
(dp273
sS'RS139_x5_0022.tif'
p274
NsS'mask.tif'
p275
NssS'0015'
p276
(dp277
S'labelings'
p278
(dp279
sS'RS139_x5_0015.tif'
p280
NsS'mask.tif'
p281
NssS'0014'
p282
(dp283
S'labelings'
p284
(dp285
sS'RS139_x5_0014.tif'
p286
NsS'mask.tif'
p287
NssS'0013'
p288
(dp289
S'labelings'
p290
(dp291
sS'RS139_x5_0013.tif'
p292
NsS'mask.tif'
p293
NssS'0012'
p294
(dp295
S'RS139_x5_0012.tif'
p296
NsS'labelings'
p297
(dp298
sS'mask.tif'
p299
NssS'0011'
p300
(dp301
S'labelings'
p302
(dp303
sS'mask.tif'
p304
NsS'RS139_x5_0011.tif'
p305
NssS'0005'
p306
(dp307
S'labelings'
p308
(dp309
sS'RS139_x5_0005.tif'
p310
NsS'mask.tif'
p311
NssS'0031'
p312
(dp313
S'labelings'
p314
(dp315
sS'RS139_x5_0031.tif'
p316
NsS'mask.tif'
p317
NssS'0006'
p318
(dp319
S'labelings'
p320
(dp321
sS'RS139_x5_0006.tif'
p322
NsS'mask.tif'
p323
NssS'0033'
p324
(dp325
S'labelings'
p326
(dp327
sS'RS139_x5_0033.tif'
p328
NsS'mask.tif'
p329
NssS'0032'
p330
(dp331
S'labelings'
p332
(dp333
sS'RS139_x5_0032.tif'
p334
NsS'mask.tif'
p335
NssS'0021'
p336
(dp337
S'labelings'
p338
(dp339
sS'RS139_x5_0021.tif'
p340
NsS'mask.tif'
p341
NssS'0010'
p342
(dp343
S'labelings'
p344
(dp345
sS'RS139_x5_0010.tif'
p346
NsS'mask.tif'
p347
NssS'0026'
p348
(dp349
S'labelings'
p350
(dp351
sS'RS139_x5_0026.tif'
p352
NsS'mask.tif'
p353
NssS'0001'
p354
(dp355
S'RS139_x5_0001.tif'
p356
NsS'labelings'
p357
(dp358
sS'mask.tif'
p359
NssS'0024'
p360
(dp361
S'labelings'
p362
(dp363
sS'RS139_x5_0024.tif'
p364
NsS'mask.tif'
p365
NssS'0003'
p366
(dp367
S'labelings'
p368
(dp369
sS'RS139_x5_0003.tif'
p370
NsS'mask.tif'
p371
NssS'0004'
p372
(dp373
S'labelings'
p374
(dp375
sS'RS139_x5_0004.tif'
p376
NsS'mask.tif'
p377
NssS'0023'
p378
(dp379
S'RS139_x5_0023.tif'
p380
NsS'labelings'
p381
(dp382
sS'mask.tif'
p383
NssS'0020'
p384
(dp385
S'labelings'
p386
(dp387
sS'mask.tif'
p388
NsS'RS139_x5_0020.tif'
p389
NssS'0007'
p390
(dp391
S'labelings'
p392
(dp393
sS'RS139_x5_0007.tif'
p394
NsS'mask.tif'
p395
NssS'0000'
p396
(dp397
S'labelings'
p398
(dp399
sS'RS139_x5_0000.tif'
p400
NsS'mask.tif'
p401
NssS'0027'
p402
(dp403
S'labelings'
p404
(dp405
sS'RS139_x5_0027.tif'
p406
NsS'mask.tif'
p407
NssS'0002'
p408
(dp409
S'labelings'
p410
(dp411
sS'RS139_x5_0002.tif'
p412
NsS'mask.tif'
p413
NssS'0025'
p414
(dp415
S'labelings'
p416
(dp417
sS'RS139_x5_0025.tif'
p418
NsS'mask.tif'
p419
NssS'0028'
p420
(dp421
S'labelings'
p422
(dp423
sS'mask.tif'
p424
NsS'RS139_x5_0028.tif'
p425
NssS'0029'
p426
(dp427
S'labelings'
p428
(dp429
sS'RS139_x5_0029.tif'
p430
NsS'mask.tif'
p431
NssS'0008'
p432
(dp433
S'labelings'
p434
(dp435
sS'RS139_x5_0008.tif'
p436
NsS'mask.tif'
p437
NssS'0009'
p438
(dp439
S'RS139_x5_0009.tif'
p440
NsS'labelings'
p441
(dp442
sS'mask.tif'
p443
NssS'0030'
p444
(dp445
S'labelings'
p446
(dp447
sS'RS139_x5_0030.tif'
p448
NsS'mask.tif'
p449
NssS'0019'
p450
(dp451
S'labelings'
p452
(dp453
sS'mask.tif'
p454
NsS'RS139_x5_0019.tif'
p455
NssS'0018'
p456
(dp457
S'labelings'
p458
(dp459
sS'RS139_x5_0018.tif'
p460
NsS'mask.tif'
p461
NssS'0016'
p462
(dp463
S'labelings'
p464
(dp465
sS'RS139_x5_0016.tif'
p466
NsS'mask.tif'
p467
NssssS'RI6'
p468
(dp469
S'x1.25'
p470
(dp471
S'0017'
p472
(dp473
S'labelings'
p474
(dp475
ssS'0004'
p476
(dp477
S'labelings'
p478
(dp479
ssS'0015'
p480
(dp481
S'labelings'
p482
(dp483
ssS'0014'
p484
(dp485
S'labelings'
p486
(dp487
ssS'0013'
p488
(dp489
S'labelings'
p490
(dp491
ssS'0012'
p492
(dp493
S'labelings'
p494
(dp495
ssS'0011'
p496
(dp497
S'labelings'
p498
(dp499
ssS'0005'
p500
(dp501
S'labelings'
p502
(dp503
ssS'0035'
p504
(dp505
S'labelings'
p506
(dp507
ssS'0034'
p508
(dp509
S'labelings'
p510
(dp511
ssS'0037'
p512
(dp513
S'labelings'
p514
(dp515
ssS'0026'
p516
(dp517
S'labelings'
p518
(dp519
ssS'0031'
p520
(dp521
S'labelings'
p522
(dp523
ssS'0006'
p524
(dp525
S'labelings'
p526
(dp527
ssS'0033'
p528
(dp529
S'labelings'
p530
(dp531
ssS'0032'
p532
(dp533
S'labelings'
p534
(dp535
ssS'0044'
p536
(dp537
S'labelings'
p538
(dp539
ssS'0021'
p540
(dp541
S'labelings'
p542
(dp543
ssS'0010'
p544
(dp545
S'labelings'
p546
(dp547
ssS'0039'
p548
(dp549
S'labelings'
p550
(dp551
ssS'0029'
p552
(dp553
S'labelings'
p554
(dp555
ssS'0038'
p556
(dp557
S'labelings'
p558
(dp559
ssS'0024'
p560
(dp561
S'labelings'
p562
(dp563
ssS'0003'
p564
(dp565
S'labelings'
p566
(dp567
ssS'0036'
p568
(dp569
S'labelings'
p570
(dp571
ssS'0047'
p572
(dp573
S'labelings'
p574
(dp575
ssS'0028'
p576
(dp577
S'labelings'
p578
(dp579
ssS'0048'
p580
(dp581
S'labelings'
p582
(dp583
ssS'0023'
p584
(dp585
S'labelings'
p586
(dp587
ssS'0020'
p588
(dp589
S'labelings'
p590
(dp591
ssS'0007'
p592
(dp593
S'labelings'
p594
(dp595
ssS'0000'
p596
(dp597
S'labelings'
p598
(dp599
ssS'0027'
p600
(dp601
S'labelings'
p602
(dp603
ssS'0002'
p604
(dp605
S'labelings'
p606
(dp607
ssS'0025'
p608
(dp609
S'labelings'
p610
(dp611
ssS'0040'
p612
(dp613
S'labelings'
p614
(dp615
ssS'0041'
p616
(dp617
S'labelings'
p618
(dp619
ssS'0042'
p620
(dp621
S'labelings'
p622
(dp623
ssS'0043'
p624
(dp625
S'labelings'
p626
(dp627
ssS'0008'
p628
(dp629
S'labelings'
p630
(dp631
ssS'0009'
p632
(dp633
S'labelings'
p634
(dp635
ssS'0046'
p636
(dp637
S'labelings'
p638
(dp639
ssS'0030'
p640
(dp641
S'labelings'
p642
(dp643
ssS'0022'
p644
(dp645
S'labelings'
p646
(dp647
ssS'0019'
p648
(dp649
S'labelings'
p650
(dp651
ssS'0018'
p652
(dp653
S'labelings'
p654
(dp655
ssS'0001'
p656
(dp657
S'labelings'
p658
(dp659
ssS'0016'
p660
(dp661
S'labelings'
p662
(dp663
ssS'0045'
p664
(dp665
S'labelings'
p666
(dp667
sssS'x5'
p668
(dp669
S'0017'
p670
(dp671
S'labelings'
p672
(dp673
ssS'0004'
p674
(dp675
S'labelings'
p676
(dp677
ssS'0015'
p678
(dp679
S'labelings'
p680
(dp681
ssS'0014'
p682
(dp683
S'labelings'
p684
(dp685
ssS'0013'
p686
(dp687
S'labelings'
p688
(dp689
ssS'0012'
p690
(dp691
S'labelings'
p692
(dp693
ssS'0011'
p694
(dp695
S'labelings'
p696
(dp697
ssS'0005'
p698
(dp699
S'labelings'
p700
(dp701
ssS'0035'
p702
(dp703
S'labelings'
p704
(dp705
ssS'0034'
p706
(dp707
S'labelings'
p708
(dp709
ssS'0037'
p710
(dp711
S'labelings'
p712
(dp713
ssS'0026'
p714
(dp715
S'labelings'
p716
(dp717
ssS'0031'
p718
(dp719
S'labelings'
p720
(dp721
ssS'0006'
p722
(dp723
S'labelings'
p724
(dp725
ssS'0033'
p726
(dp727
S'labelings'
p728
(dp729
ssS'0032'
p730
(dp731
S'labelings'
p732
(dp733
ssS'0044'
p734
(dp735
S'labelings'
p736
(dp737
ssS'0021'
p738
(dp739
S'labelings'
p740
(dp741
ssS'0010'
p742
(dp743
S'labelings'
p744
(dp745
ssS'0039'
p746
(dp747
S'labelings'
p748
(dp749
ssS'0029'
p750
(dp751
S'labelings'
p752
(dp753
ssS'0038'
p754
(dp755
S'labelings'
p756
(dp757
ssS'0024'
p758
(dp759
S'labelings'
p760
(dp761
ssS'0003'
p762
(dp763
S'labelings'
p764
(dp765
ssS'0036'
p766
(dp767
S'labelings'
p768
(dp769
ssS'0047'
p770
(dp771
S'labelings'
p772
(dp773
ssS'0028'
p774
(dp775
S'labelings'
p776
(dp777
ssS'0048'
p778
(dp779
S'labelings'
p780
(dp781
ssS'0023'
p782
(dp783
S'labelings'
p784
(dp785
ssS'0020'
p786
(dp787
S'labelings'
p788
(dp789
ssS'0007'
p790
(dp791
S'labelings'
p792
(dp793
ssS'0000'
p794
(dp795
S'labelings'
p796
(dp797
ssS'0027'
p798
(dp799
S'labelings'
p800
(dp801
ssS'0002'
p802
(dp803
S'labelings'
p804
(dp805
ssS'0025'
p806
(dp807
S'labelings'
p808
(dp809
ssS'0040'
p810
(dp811
S'labelings'
p812
(dp813
ssS'0041'
p814
(dp815
S'labelings'
p816
(dp817
ssS'0042'
p818
(dp819
S'labelings'
p820
(dp821
ssS'0043'
p822
(dp823
S'labelings'
p824
(dp825
ssS'0008'
p826
(dp827
S'labelings'
p828
(dp829
ssS'0009'
p830
(dp831
S'labelings'
p832
(dp833
ssS'0046'
p834
(dp835
S'labelings'
p836
(dp837
ssS'0030'
p838
(dp839
S'labelings'
p840
(dp841
ssS'0022'
p842
(dp843
S'labelings'
p844
(dp845
ssS'0019'
p846
(dp847
S'labelings'
p848
(dp849
ssS'0018'
p850
(dp851
S'labelings'
p852
(dp853
ssS'0001'
p854
(dp855
S'labelings'
p856
(dp857
ssS'0016'
p858
(dp859
S'labelings'
p860
(dp861
ssS'0045'
p862
(dp863
S'labelings'
p864
(dp865
ssssS'RS58'
p866
(dp867
S'x1.25'
p868
(dp869
S'0017'
p870
(dp871
S'labelings'
p872
(dp873
ssS'0022'
p874
(dp875
S'labelings'
p876
(dp877
ssS'0015'
p878
(dp879
S'labelings'
p880
(dp881
ssS'0014'
p882
(dp883
S'labelings'
p884
(dp885
ssS'0013'
p886
(dp887
S'labelings'
p888
(dp889
ssS'0012'
p890
(dp891
S'labelings'
p892
(dp893
ssS'0011'
p894
(dp895
S'labelings'
p896
(dp897
ssS'0005'
p898
(dp899
S'labelings'
p900
(dp901
ssS'0006'
p902
(dp903
S'labelings'
p904
(dp905
ssS'0019'
p906
(dp907
S'labelings'
p908
(dp909
ssS'0018'
p910
(dp911
S'labelings'
p912
(dp913
ssS'0021'
p914
(dp915
S'labelings'
p916
(dp917
ssS'0010'
p918
(dp919
S'labelings'
p920
(dp921
ssS'0026'
p922
(dp923
S'labelings'
p924
(dp925
ssS'0001'
p926
(dp927
S'labelings'
p928
(dp929
ssS'0024'
p930
(dp931
S'labelings'
p932
(dp933
ssS'0003'
p934
(dp935
S'labelings'
p936
(dp937
ssS'0004'
p938
(dp939
S'labelings'
p940
(dp941
ssS'0023'
p942
(dp943
S'labelings'
p944
(dp945
ssS'0020'
p946
(dp947
S'labelings'
p948
(dp949
ssS'0007'
p950
(dp951
S'labelings'
p952
(dp953
ssS'0000'
p954
(dp955
S'labelings'
p956
(dp957
ssS'0027'
p958
(dp959
S'labelings'
p960
(dp961
ssS'0002'
p962
(dp963
S'labelings'
p964
(dp965
ssS'0025'
p966
(dp967
S'labelings'
p968
(dp969
ssS'0008'
p970
(dp971
S'labelings'
p972
(dp973
ssS'0009'
p974
(dp975
S'labelings'
p976
(dp977
ssS'0016'
p978
(dp979
S'labelings'
p980
(dp981
sssS'x20'
p982
(dp983
S'0017'
p984
(dp985
S'labelings'
p986
(dp987
ssS'0022'
p988
(dp989
S'labelings'
p990
(dp991
ssS'0015'
p992
(dp993
S'labelings'
p994
(dp995
ssS'0014'
p996
(dp997
S'labelings'
p998
(dp999
ssS'0013'
p1000
(dp1001
S'labelings'
p1002
(dp1003
ssS'0012'
p1004
(dp1005
S'labelings'
p1006
(dp1007
ssS'0011'
p1008
(dp1009
S'labelings'
p1010
(dp1011
ssS'0005'
p1012
(dp1013
S'labelings'
p1014
(dp1015
ssS'0006'
p1016
(dp1017
S'labelings'
p1018
(dp1019
ssS'0019'
p1020
(dp1021
S'labelings'
p1022
(dp1023
ssS'0018'
p1024
(dp1025
S'labelings'
p1026
(dp1027
ssS'0021'
p1028
(dp1029
S'labelings'
p1030
(dp1031
ssS'0010'
p1032
(dp1033
S'labelings'
p1034
(dp1035
ssS'0026'
p1036
(dp1037
S'labelings'
p1038
(dp1039
ssS'0001'
p1040
(dp1041
S'labelings'
p1042
(dp1043
ssS'0024'
p1044
(dp1045
S'labelings'
p1046
(dp1047
ssS'0003'
p1048
(dp1049
S'labelings'
p1050
(dp1051
ssS'0004'
p1052
(dp1053
S'labelings'
p1054
(dp1055
ssS'0023'
p1056
(dp1057
S'labelings'
p1058
(dp1059
ssS'0020'
p1060
(dp1061
S'labelings'
p1062
(dp1063
ssS'0007'
p1064
(dp1065
S'labelings'
p1066
(dp1067
ssS'0000'
p1068
(dp1069
S'labelings'
p1070
(dp1071
ssS'0027'
p1072
(dp1073
S'labelings'
p1074
(dp1075
ssS'0002'
p1076
(dp1077
S'labelings'
p1078
(dp1079
ssS'0025'
p1080
(dp1081
S'labelings'
p1082
(dp1083
ssS'0008'
p1084
(dp1085
S'labelings'
p1086
(dp1087
ssS'0009'
p1088
(dp1089
S'labelings'
p1090
(dp1091
ssS'0016'
p1092
(dp1093
S'labelings'
p1094
(dp1095
sssS'x5'
p1096
(dp1097
S'0017'
p1098
(dp1099
S'RS58_x5_0017.tif'
p1100
NsS'labelings'
p1101
(dp1102
sS'mask.tif'
p1103
NssS'0022'
p1104
(dp1105
S'labelings'
p1106
(dp1107
sS'RS58_x5_0022.tif'
p1108
NsS'mask.tif'
p1109
NssS'0015'
p1110
(dp1111
S'labelings'
p1112
(dp1113
sS'RS58_x5_0015.tif'
p1114
NsS'mask.tif'
p1115
NssS'0014'
p1116
(dp1117
S'labelings'
p1118
(dp1119
sS'RS58_x5_0014.tif'
p1120
NsS'mask.tif'
p1121
NssS'0013'
p1122
(dp1123
S'labelings'
p1124
(dp1125
sS'RS58_x5_0013.tif'
p1126
NsS'mask.tif'
p1127
NssS'0012'
p1128
(dp1129
S'labelings'
p1130
(dp1131
sS'RS58_x5_0012.tif'
p1132
NsS'mask.tif'
p1133
NssS'0011'
p1134
(dp1135
S'labelings'
p1136
(dp1137
sS'RS58_x5_0011.tif'
p1138
NsS'mask.tif'
p1139
NssS'0005'
p1140
(dp1141
S'labelings'
p1142
(dp1143
sS'RS58_x5_0005.tif'
p1144
NsS'mask.tif'
p1145
NssS'0006'
p1146
(dp1147
S'labelings'
p1148
(dp1149
sS'RS58_x5_0006.tif'
p1150
NsS'mask.tif'
p1151
NssS'0019'
p1152
(dp1153
S'labelings'
p1154
(dp1155
sS'RS58_x5_0019.tif'
p1156
NsS'mask.tif'
p1157
NssS'0018'
p1158
(dp1159
S'labelings'
p1160
(dp1161
sS'RS58_x5_0018.tif'
p1162
NsS'mask.tif'
p1163
NssS'0021'
p1164
(dp1165
S'labelings'
p1166
(dp1167
sS'RS58_x5_0021.tif'
p1168
NsS'mask.tif'
p1169
NssS'0010'
p1170
(dp1171
S'labelings'
p1172
(dp1173
sS'RS58_x5_0010.tif'
p1174
NsS'mask.tif'
p1175
NssS'0026'
p1176
(dp1177
S'RS58_x5_0026.tif'
p1178
NsS'labelings'
p1179
(dp1180
sS'mask.tif'
p1181
NssS'0001'
p1182
(dp1183
S'labelings'
p1184
(dp1185
sS'RS58_x5_0001.tif'
p1186
NsS'mask.tif'
p1187
NssS'0024'
p1188
(dp1189
S'labelings'
p1190
(dp1191
sS'RS58_x5_0024.tif'
p1192
NsS'mask.tif'
p1193
NssS'0003'
p1194
(dp1195
S'labelings'
p1196
(dp1197
sS'RS58_x5_0003.tif'
p1198
NsS'mask.tif'
p1199
NssS'0004'
p1200
(dp1201
S'RS58_x5_0004.tif'
p1202
NsS'labelings'
p1203
(dp1204
sS'mask.tif'
p1205
NssS'0023'
p1206
(dp1207
S'labelings'
p1208
(dp1209
sS'RS58_x5_0023.tif'
p1210
NsS'mask.tif'
p1211
NssS'0020'
p1212
(dp1213
S'labelings'
p1214
(dp1215
sS'RS58_x5_0020.tif'
p1216
NsS'mask.tif'
p1217
NssS'0007'
p1218
(dp1219
S'labelings'
p1220
(dp1221
sS'RS58_x5_0007.tif'
p1222
NsS'mask.tif'
p1223
NssS'0000'
p1224
(dp1225
S'labelings'
p1226
(dp1227
sS'RS58_x5_0000.tif'
p1228
NsS'mask.tif'
p1229
NssS'0027'
p1230
(dp1231
S'labelings'
p1232
(dp1233
sS'RS58_x5_0027.tif'
p1234
NsS'mask.tif'
p1235
NssS'0002'
p1236
(dp1237
S'labelings'
p1238
(dp1239
sS'RS58_x5_0002.tif'
p1240
NsS'mask.tif'
p1241
NssS'0025'
p1242
(dp1243
S'labelings'
p1244
(dp1245
sS'RS58_x5_0025.tif'
p1246
NsS'mask.tif'
p1247
NssS'0008'
p1248
(dp1249
S'labelings'
p1250
(dp1251
sS'RS58_x5_0008.tif'
p1252
NsS'mask.tif'
p1253
NssS'0009'
p1254
(dp1255
S'labelings'
p1256
(dp1257
sS'RS58_x5_0009.tif'
p1258
NsS'mask.tif'
p1259
NssS'0016'
p1260
(dp1261
S'labelings'
p1262
(dp1263
sS'RS58_x5_0016.tif'
p1264
NsS'mask.tif'
p1265
NssssS'RS76'
p1266
(dp1267
S'x5'
p1268
(dp1269
S'0017'
p1270
(dp1271
S'labelings'
p1272
(dp1273
ssS'0022'
p1274
(dp1275
S'labelings'
p1276
(dp1277
ssS'0015'
p1278
(dp1279
S'labelings'
p1280
(dp1281
ssS'0014'
p1282
(dp1283
S'labelings'
p1284
(dp1285
ssS'0013'
p1286
(dp1287
S'labelings'
p1288
(dp1289
ssS'0012'
p1290
(dp1291
S'labelings'
p1292
(dp1293
ssS'0011'
p1294
(dp1295
S'labelings'
p1296
(dp1297
ssS'0005'
p1298
(dp1299
S'labelings'
p1300
(dp1301
ssS'0035'
p1302
(dp1303
S'labelings'
p1304
(dp1305
ssS'0034'
p1306
(dp1307
S'labelings'
p1308
(dp1309
ssS'0031'
p1310
(dp1311
S'labelings'
p1312
(dp1313
ssS'0006'
p1314
(dp1315
S'labelings'
p1316
(dp1317
ssS'0033'
p1318
(dp1319
S'labelings'
p1320
(dp1321
ssS'0032'
p1322
(dp1323
S'labelings'
p1324
(dp1325
ssS'0021'
p1326
(dp1327
S'labelings'
p1328
(dp1329
ssS'0010'
p1330
(dp1331
S'labelings'
p1332
(dp1333
ssS'0026'
p1334
(dp1335
S'labelings'
p1336
(dp1337
ssS'0001'
p1338
(dp1339
S'labelings'
p1340
(dp1341
ssS'0024'
p1342
(dp1343
S'labelings'
p1344
(dp1345
ssS'0003'
p1346
(dp1347
S'labelings'
p1348
(dp1349
ssS'0004'
p1350
(dp1351
S'labelings'
p1352
(dp1353
ssS'0023'
p1354
(dp1355
S'labelings'
p1356
(dp1357
ssS'0020'
p1358
(dp1359
S'labelings'
p1360
(dp1361
ssS'0007'
p1362
(dp1363
S'labelings'
p1364
(dp1365
ssS'0000'
p1366
(dp1367
S'labelings'
p1368
(dp1369
ssS'0027'
p1370
(dp1371
S'labelings'
p1372
(dp1373
ssS'0002'
p1374
(dp1375
S'labelings'
p1376
(dp1377
ssS'0025'
p1378
(dp1379
S'labelings'
p1380
(dp1381
ssS'0028'
p1382
(dp1383
S'labelings'
p1384
(dp1385
ssS'0029'
p1386
(dp1387
S'labelings'
p1388
(dp1389
ssS'0008'
p1390
(dp1391
S'labelings'
p1392
(dp1393
ssS'0009'
p1394
(dp1395
S'labelings'
p1396
(dp1397
ssS'0030'
p1398
(dp1399
S'labelings'
p1400
(dp1401
ssS'0019'
p1402
(dp1403
S'labelings'
p1404
(dp1405
ssS'0018'
p1406
(dp1407
S'labelings'
p1408
(dp1409
ssS'0016'
p1410
(dp1411
S'labelings'
p1412
(dp1413
ssssS'RS155'
p1414
(dp1415
S'x5'
p1416
(dp1417
S'0017'
p1418
(dp1419
S'labelings'
p1420
(dp1421
ssS'0022'
p1422
(dp1423
S'labelings'
p1424
(dp1425
ssS'0015'
p1426
(dp1427
S'labelings'
p1428
(dp1429
ssS'0014'
p1430
(dp1431
S'labelings'
p1432
(dp1433
ssS'0013'
p1434
(dp1435
S'labelings'
p1436
(dp1437
ssS'0012'
p1438
(dp1439
S'labelings'
p1440
(dp1441
ssS'0011'
p1442
(dp1443
S'labelings'
p1444
(dp1445
ssS'0005'
p1446
(dp1447
S'labelings'
p1448
(dp1449
ssS'0035'
p1450
(dp1451
S'labelings'
p1452
(dp1453
ssS'0034'
p1454
(dp1455
S'labelings'
p1456
(dp1457
ssS'0037'
p1458
(dp1459
S'labelings'
p1460
(dp1461
ssS'0036'
p1462
(dp1463
S'labelings'
p1464
(dp1465
ssS'0031'
p1466
(dp1467
S'labelings'
p1468
(dp1469
ssS'0006'
p1470
(dp1471
S'labelings'
p1472
(dp1473
ssS'0033'
p1474
(dp1475
S'labelings'
p1476
(dp1477
ssS'0032'
p1478
(dp1479
S'labelings'
p1480
(dp1481
ssS'0021'
p1482
(dp1483
S'labelings'
p1484
(dp1485
ssS'0010'
p1486
(dp1487
S'labelings'
p1488
(dp1489
ssS'0026'
p1490
(dp1491
S'labelings'
p1492
(dp1493
ssS'0038'
p1494
(dp1495
S'labelings'
p1496
(dp1497
ssS'0024'
p1498
(dp1499
S'labelings'
p1500
(dp1501
ssS'0003'
p1502
(dp1503
S'labelings'
p1504
(dp1505
ssS'0004'
p1506
(dp1507
S'labelings'
p1508
(dp1509
ssS'0023'
p1510
(dp1511
S'labelings'
p1512
(dp1513
ssS'0020'
p1514
(dp1515
S'labelings'
p1516
(dp1517
ssS'0007'
p1518
(dp1519
S'labelings'
p1520
(dp1521
ssS'0000'
p1522
(dp1523
S'labelings'
p1524
(dp1525
ssS'0027'
p1526
(dp1527
S'labelings'
p1528
(dp1529
ssS'0002'
p1530
(dp1531
S'labelings'
p1532
(dp1533
ssS'0025'
p1534
(dp1535
S'labelings'
p1536
(dp1537
ssS'0028'
p1538
(dp1539
S'labelings'
p1540
(dp1541
ssS'0029'
p1542
(dp1543
S'labelings'
p1544
(dp1545
ssS'0008'
p1546
(dp1547
S'labelings'
p1548
(dp1549
ssS'0009'
p1550
(dp1551
S'labelings'
p1552
(dp1553
ssS'0030'
p1554
(dp1555
S'labelings'
p1556
(dp1557
ssS'0019'
p1558
(dp1559
S'labelings'
p1560
(dp1561
ssS'0018'
p1562
(dp1563
S'labelings'
p1564
(dp1565
ssS'0001'
p1566
(dp1567
S'labelings'
p1568
(dp1569
ssS'0039'
p1570
(dp1571
S'labelings'
p1572
(dp1573
ssS'0016'
p1574
(dp1575
S'labelings'
p1576
(dp1577
ssssS'RS141'
p1578
(dp1579
S'x1.25'
p1580
(dp1581
S'0017'
p1582
(dp1583
S'labelings'
p1584
(dp1585
ssS'0022'
p1586
(dp1587
S'labelings'
p1588
(dp1589
ssS'0015'
p1590
(dp1591
S'labelings'
p1592
(dp1593
ssS'0014'
p1594
(dp1595
S'labelings'
p1596
(dp1597
ssS'0013'
p1598
(dp1599
S'labelings'
p1600
(dp1601
ssS'0012'
p1602
(dp1603
S'labelings'
p1604
(dp1605
ssS'0011'
p1606
(dp1607
S'labelings'
p1608
(dp1609
ssS'0005'
p1610
(dp1611
S'labelings'
p1612
(dp1613
ssS'0006'
p1614
(dp1615
S'labelings'
p1616
(dp1617
ssS'0019'
p1618
(dp1619
S'labelings'
p1620
(dp1621
ssS'0018'
p1622
(dp1623
S'labelings'
p1624
(dp1625
ssS'0021'
p1626
(dp1627
S'labelings'
p1628
(dp1629
ssS'0024'
p1630
(dp1631
S'labelings'
p1632
(dp1633
ssS'0010'
p1634
(dp1635
S'labelings'
p1636
(dp1637
ssS'0004'
p1638
(dp1639
S'labelings'
p1640
(dp1641
ssS'0023'
p1642
(dp1643
S'labelings'
p1644
(dp1645
ssS'0020'
p1646
(dp1647
S'labelings'
p1648
(dp1649
ssS'0007'
p1650
(dp1651
S'labelings'
p1652
(dp1653
ssS'0000'
p1654
(dp1655
S'labelings'
p1656
(dp1657
ssS'0001'
p1658
(dp1659
S'labelings'
p1660
(dp1661
ssS'0002'
p1662
(dp1663
S'labelings'
p1664
(dp1665
ssS'0003'
p1666
(dp1667
S'labelings'
p1668
(dp1669
ssS'0008'
p1670
(dp1671
S'labelings'
p1672
(dp1673
ssS'0009'
p1674
(dp1675
S'labelings'
p1676
(dp1677
ssS'0016'
p1678
(dp1679
S'labelings'
p1680
(dp1681
sssS'x20'
p1682
(dp1683
S'0017'
p1684
(dp1685
S'labelings'
p1686
(dp1687
ssS'0022'
p1688
(dp1689
S'labelings'
p1690
(dp1691
ssS'0015'
p1692
(dp1693
S'labelings'
p1694
(dp1695
ssS'0014'
p1696
(dp1697
S'labelings'
p1698
(dp1699
ssS'0013'
p1700
(dp1701
S'labelings'
p1702
(dp1703
ssS'0012'
p1704
(dp1705
S'labelings'
p1706
(dp1707
ssS'0011'
p1708
(dp1709
S'labelings'
p1710
(dp1711
ssS'0005'
p1712
(dp1713
S'labelings'
p1714
(dp1715
ssS'0006'
p1716
(dp1717
S'labelings'
p1718
(dp1719
ssS'0019'
p1720
(dp1721
S'labelings'
p1722
(dp1723
ssS'0018'
p1724
(dp1725
S'labelings'
p1726
(dp1727
ssS'0021'
p1728
(dp1729
S'labelings'
p1730
(dp1731
ssS'0024'
p1732
(dp1733
S'labelings'
p1734
(dp1735
ssS'0010'
p1736
(dp1737
S'labelings'
p1738
(dp1739
ssS'0004'
p1740
(dp1741
S'labelings'
p1742
(dp1743
ssS'0023'
p1744
(dp1745
S'labelings'
p1746
(dp1747
ssS'0020'
p1748
(dp1749
S'labelings'
p1750
(dp1751
ssS'0007'
p1752
(dp1753
S'labelings'
p1754
(dp1755
ssS'0000'
p1756
(dp1757
S'labelings'
p1758
(dp1759
ssS'0001'
p1760
(dp1761
S'labelings'
p1762
(dp1763
ssS'0002'
p1764
(dp1765
S'labelings'
p1766
(dp1767
ssS'0003'
p1768
(dp1769
S'labelings'
p1770
(dp1771
ssS'0008'
p1772
(dp1773
S'labelings'
p1774
(dp1775
ssS'0009'
p1776
(dp1777
S'labelings'
p1778
(dp1779
ssS'0016'
p1780
(dp1781
S'labelings'
p1782
(dp1783
sssS'x5'
p1784
(dp1785
S'0017'
p1786
(dp1787
S'RS141_x5_0017_mask.png'
p1788
NsS'labelings'
p1789
(dp1790
sS'RS141_x5_0017.tif'
p1791
NsS'redNissl_pipelineResults'
p1792
(dp1793
S'RS141_x5_0017_redNissl_fg.npy'
p1794
NsS'RS141_x5_0017_redNissl_cropMask.npy'
p1795
NsS'RS141_x5_0017_redNissl_texMap.tif'
p1796
NsS'RS141_x5_0017_redNissl_features.npy'
p1797
NsS'RS141_x5_0017_redNissl_texHist.npy'
p1798
NsS'RS141_x5_0017_redNissl_segmentation.npy'
p1799
NsS'RS141_x5_0017_redNissl_segmentation.tif'
p1800
NsS'RS141_x5_0017_redNissl_texMap.npy'
p1801
NsS'RS141_x5_0017_redNissl_dirHist.npy'
p1802
NsS'RS141_x5_0017_redNissl_bg.npy'
p1803
NsS'RS141_x5_0017_redNissl_neighbors.npy'
p1804
NsS'RS141_x5_0017_redNissl_cropImg.tif'
p1805
NsssS'0022'
p1806
(dp1807
S'RS141_x5_0022.tif'
p1808
NsS'labelings'
p1809
(dp1810
sS'RS141_x5_0022_mask.png'
p1811
NsS'redNissl_pipelineResults'
p1812
(dp1813
S'RS141_x5_0022_redNissl_segmentation.npy'
p1814
NsS'RS141_x5_0022_redNissl_features.npy'
p1815
NsS'RS141_x5_0022_redNissl_neighbors.npy'
p1816
NsS'RS141_x5_0022_redNissl_bg.npy'
p1817
NsS'RS141_x5_0022_redNissl_cropImg.tif'
p1818
NsS'RS141_x5_0022_redNissl_dirHist.npy'
p1819
NsS'RS141_x5_0022_redNissl_cropMask.npy'
p1820
NsS'RS141_x5_0022_redNissl_segmentation.tif'
p1821
NsS'RS141_x5_0022_redNissl_texMap.tif'
p1822
NsS'RS141_x5_0022_redNissl_texMap.npy'
p1823
NsS'RS141_x5_0022_redNissl_texHist.npy'
p1824
NsS'RS141_x5_0022_redNissl_fg.npy'
p1825
NsssS'0015'
p1826
(dp1827
S'labelings'
p1828
(dp1829
sS'redNissl_pipelineResults'
p1830
(dp1831
S'RS141_x5_0015_redNissl_dirHist.npy'
p1832
NsS'RS141_x5_0015_redNissl_features.npy'
p1833
NsS'RS141_x5_0015_redNissl_segmentation.tif'
p1834
NsS'RS141_x5_0015_redNissl_texHist.npy'
p1835
NsS'RS141_x5_0015_redNissl_bg.npy'
p1836
NsS'RS141_x5_0015_redNissl_texMap.npy'
p1837
NsS'RS141_x5_0015_redNissl_neighbors.npy'
p1838
NsS'RS141_x5_0015_redNissl_texMap.tif'
p1839
NsS'RS141_x5_0015_redNissl_fg.npy'
p1840
NsS'RS141_x5_0015_redNissl_cropMask.npy'
p1841
NsS'RS141_x5_0015_redNissl_cropImg.tif'
p1842
NsS'RS141_x5_0015_redNissl_segmentation.npy'
p1843
NssS'RS141_x5_0015.tif'
p1844
NsS'RS141_x5_0015_mask.png'
p1845
NssS'0014'
p1846
(dp1847
S'labelings'
p1848
(dp1849
sS'RS141_x5_0014_mask.png'
p1850
NsS'RS141_x5_0014.tif'
p1851
NsS'redNissl_pipelineResults'
p1852
(dp1853
S'RS141_x5_0014_redNissl_cropImg.tif'
p1854
NsS'RS141_x5_0014_redNissl_bg.npy'
p1855
NsS'RS141_x5_0014_redNissl_segmentation.npy'
p1856
NsS'RS141_x5_0014_redNissl_fg.npy'
p1857
NsS'RS141_x5_0014_redNissl_features.npy'
p1858
NsS'RS141_x5_0014_redNissl_cropMask.npy'
p1859
NsS'RS141_x5_0014_redNissl_texHist.npy'
p1860
NsS'RS141_x5_0014_redNissl_texMap.tif'
p1861
NsS'RS141_x5_0014_redNissl_neighbors.npy'
p1862
NsS'RS141_x5_0014_redNissl_dirHist.npy'
p1863
NsS'RS141_x5_0014_redNissl_texMap.npy'
p1864
NsS'RS141_x5_0014_redNissl_segmentation.tif'
p1865
NsssS'0013'
p1866
(dp1867
S'RS141_x5_0013.tif'
p1868
NsS'labelings'
p1869
(dp1870
sS'RS141_x5_0013_mask.png'
p1871
NsS'redNissl_pipelineResults'
p1872
(dp1873
S'RS141_x5_0013_redNissl_cropMask.npy'
p1874
NsS'RS141_x5_0013_redNissl_neighbors.npy'
p1875
NsS'RS141_x5_0013_redNissl_cropImg.tif'
p1876
NsS'RS141_x5_0013_redNissl_texMap.npy'
p1877
NsS'RS141_x5_0013_redNissl_texHist.npy'
p1878
NsS'RS141_x5_0013_redNissl_dirHist.npy'
p1879
NsS'RS141_x5_0013_redNissl_bg.npy'
p1880
NsS'RS141_x5_0013_redNissl_features.npy'
p1881
NsS'RS141_x5_0013_redNissl_texMap.tif'
p1882
NsS'RS141_x5_0013_redNissl_fg.npy'
p1883
NsS'RS141_x5_0013_redNissl_segmentation.tif'
p1884
NsS'RS141_x5_0013_redNissl_segmentation.npy'
p1885
NsssS'0012'
p1886
(dp1887
S'labelings'
p1888
(dp1889
sS'RS141_x5_0012.tif'
p1890
NsS'redNissl_pipelineResults'
p1891
(dp1892
S'RS141_x5_0012_redNissl_segmentation.npy'
p1893
NsS'RS141_x5_0012_redNissl_segmentation.tif'
p1894
NsS'RS141_x5_0012_redNissl_texMap.tif'
p1895
NsS'RS141_x5_0012_redNissl_dirHist.npy'
p1896
NsS'RS141_x5_0012_redNissl_features.npy'
p1897
NsS'RS141_x5_0012_redNissl_texHist.npy'
p1898
NsS'RS141_x5_0012_redNissl_bg.npy'
p1899
NsS'RS141_x5_0012_redNissl_cropImg.tif'
p1900
NsS'RS141_x5_0012_redNissl_texMap.npy'
p1901
NsS'RS141_x5_0012_redNissl_neighbors.npy'
p1902
NsS'RS141_x5_0012_redNissl_fg.npy'
p1903
NsS'RS141_x5_0012_redNissl_cropMask.npy'
p1904
NssS'RS141_x5_0012_mask.png'
p1905
NssS'0011'
p1906
(dp1907
S'labelings'
p1908
(dp1909
sS'redNissl_pipelineResults'
p1910
(dp1911
S'RS141_x5_0011_redNissl_cropImg.tif'
p1912
NsS'RS141_x5_0011_redNissl_dirHist.npy'
p1913
NsS'RS141_x5_0011_redNissl_segmentation.npy'
p1914
NsS'RS141_x5_0011_redNissl_cropMask.npy'
p1915
NsS'RS141_x5_0011_redNissl_bg.npy'
p1916
NsS'RS141_x5_0011_redNissl_features.npy'
p1917
NsS'RS141_x5_0011_redNissl_segmentation.tif'
p1918
NsS'RS141_x5_0011_redNissl_texMap.npy'
p1919
NsS'RS141_x5_0011_redNissl_texHist.npy'
p1920
NsS'RS141_x5_0011_redNissl_neighbors.npy'
p1921
NsS'RS141_x5_0011_redNissl_fg.npy'
p1922
NsS'RS141_x5_0011_redNissl_texMap.tif'
p1923
NssS'RS141_x5_0011_mask.png'
p1924
NsS'RS141_x5_0011.tif'
p1925
NssS'0010'
p1926
(dp1927
S'labelings'
p1928
(dp1929
sS'redNissl_pipelineResults'
p1930
(dp1931
S'RS141_x5_0010_redNissl_texMap.npy'
p1932
NsS'RS141_x5_0010_redNissl_texHist.npy'
p1933
NsS'RS141_x5_0010_redNissl_dirHist.npy'
p1934
NsS'RS141_x5_0010_redNissl_neighbors.npy'
p1935
NsS'RS141_x5_0010_redNissl_cropMask.npy'
p1936
NsS'RS141_x5_0010_redNissl_fg.npy'
p1937
NsS'RS141_x5_0010_redNissl_features.npy'
p1938
NsS'RS141_x5_0010_redNissl_bg.npy'
p1939
NsS'RS141_x5_0010_redNissl_segmentation.npy'
p1940
NsS'RS141_x5_0010_redNissl_segmentation.tif'
p1941
NsS'RS141_x5_0010_redNissl_texMap.tif'
p1942
NsS'RS141_x5_0010_redNissl_cropImg.tif'
p1943
NssS'RS141_x5_0010_mask.png'
p1944
NsS'RS141_x5_0010.tif'
p1945
NssS'0006'
p1946
(dp1947
S'labelings'
p1948
(dp1949
sS'redNissl_pipelineResults'
p1950
(dp1951
S'RS141_x5_0006_redNissl_features.npy'
p1952
NsS'RS141_x5_0006_redNissl_neighbors.npy'
p1953
NsS'RS141_x5_0006_redNissl_fg.npy'
p1954
NsS'RS141_x5_0006_redNissl_segmentation.tif'
p1955
NsS'RS141_x5_0006_redNissl_texMap.tif'
p1956
NsS'RS141_x5_0006_redNissl_cropImg.tif'
p1957
NsS'RS141_x5_0006_redNissl_texMap.npy'
p1958
NsS'RS141_x5_0006_redNissl_cropMask.npy'
p1959
NsS'RS141_x5_0006_redNissl_bg.npy'
p1960
NsS'RS141_x5_0006_redNissl_texHist.npy'
p1961
NsS'RS141_x5_0006_redNissl_dirHist.npy'
p1962
NsS'RS141_x5_0006_redNissl_segmentation.npy'
p1963
NssS'RS141_x5_0006_mask.png'
p1964
NsS'RS141_x5_0006.tif'
p1965
NssS'0019'
p1966
(dp1967
S'labelings'
p1968
(dp1969
sS'redNissl_pipelineResults'
p1970
(dp1971
S'RS141_x5_0019_redNissl_features.npy'
p1972
NsS'RS141_x5_0019_redNissl_neighbors.npy'
p1973
NsS'RS141_x5_0019_redNissl_fg.npy'
p1974
NsS'RS141_x5_0019_redNissl_segmentation.tif'
p1975
NsS'RS141_x5_0019_redNissl_texMap.tif'
p1976
NsS'RS141_x5_0019_redNissl_cropImg.tif'
p1977
NsS'RS141_x5_0019_redNissl_texMap.npy'
p1978
NsS'RS141_x5_0019_redNissl_cropMask.npy'
p1979
NsS'RS141_x5_0019_redNissl_bg.npy'
p1980
NsS'RS141_x5_0019_redNissl_texHist.npy'
p1981
NsS'RS141_x5_0019_redNissl_dirHist.npy'
p1982
NsS'RS141_x5_0019_redNissl_segmentation.npy'
p1983
NssS'RS141_x5_0019_mask.png'
p1984
NsS'RS141_x5_0019.tif'
p1985
NssS'0018'
p1986
(dp1987
S'labelings'
p1988
(dp1989
sS'redNissl_pipelineResults'
p1990
(dp1991
S'RS141_x5_0018_redNissl_texMap.tif'
p1992
NsS'RS141_x5_0018_redNissl_cropImg.tif'
p1993
NsS'RS141_x5_0018_redNissl_features.npy'
p1994
NsS'RS141_x5_0018_redNissl_neighbors.npy'
p1995
NsS'RS141_x5_0018_redNissl_segmentation.tif'
p1996
NsS'RS141_x5_0018_redNissl_cropMask.npy'
p1997
NsS'RS141_x5_0018_redNissl_texMap.npy'
p1998
NsS'RS141_x5_0018_redNissl_texHist.npy'
p1999
NsS'RS141_x5_0018_redNissl_fg.npy'
p2000
NsS'RS141_x5_0018_redNissl_dirHist.npy'
p2001
NsS'RS141_x5_0018_redNissl_bg.npy'
p2002
NsS'RS141_x5_0018_redNissl_segmentation.npy'
p2003
NssS'RS141_x5_0018_mask.png'
p2004
NsS'RS141_x5_0018.tif'
p2005
NssS'0021'
p2006
(dp2007
S'labelings'
p2008
(dp2009
sS'redNissl_pipelineResults'
p2010
(dp2011
S'RS141_x5_0021_redNissl_texMap.tif'
p2012
NsS'RS141_x5_0021_redNissl_cropImg.tif'
p2013
NsS'RS141_x5_0021_redNissl_features.npy'
p2014
NsS'RS141_x5_0021_redNissl_neighbors.npy'
p2015
NsS'RS141_x5_0021_redNissl_segmentation.tif'
p2016
NsS'RS141_x5_0021_redNissl_cropMask.npy'
p2017
NsS'RS141_x5_0021_redNissl_texMap.npy'
p2018
NsS'RS141_x5_0021_redNissl_texHist.npy'
p2019
NsS'RS141_x5_0021_redNissl_fg.npy'
p2020
NsS'RS141_x5_0021_redNissl_dirHist.npy'
p2021
NsS'RS141_x5_0021_redNissl_bg.npy'
p2022
NsS'RS141_x5_0021_redNissl_segmentation.npy'
p2023
NssS'RS141_x5_0021_mask.png'
p2024
NsS'RS141_x5_0021.tif'
p2025
NssS'0004'
p2026
(dp2027
S'RS141_x5_0004.tif'
p2028
NsS'labelings'
p2029
(dp2030
sS'RS141_x5_0004_mask.png'
p2031
NsS'redNissl_pipelineResults'
p2032
(dp2033
S'RS141_x5_0004_redNissl_segmentation.npy'
p2034
NsS'RS141_x5_0004_redNissl_features.npy'
p2035
NsS'RS141_x5_0004_redNissl_cropMask.npy'
p2036
NsS'RS141_x5_0004_redNissl_bg.npy'
p2037
NsS'RS141_x5_0004_redNissl_cropImg.tif'
p2038
NsS'RS141_x5_0004_redNissl_dirHist.npy'
p2039
NsS'RS141_x5_0004_redNissl_neighbors.npy'
p2040
NsS'RS141_x5_0004_redNissl_segmentation.tif'
p2041
NsS'RS141_x5_0004_redNissl_texMap.tif'
p2042
NsS'RS141_x5_0004_redNissl_texMap.npy'
p2043
NsS'RS141_x5_0004_redNissl_texHist.npy'
p2044
NsS'RS141_x5_0004_redNissl_fg.npy'
p2045
NsssS'0023'
p2046
(dp2047
S'labelings'
p2048
(dp2049
sS'RS141_x5_0023.tif'
p2050
NsS'redNissl_pipelineResults'
p2051
(dp2052
S'RS141_x5_0023_redNissl_cropMask.npy'
p2053
NsS'RS141_x5_0023_redNissl_segmentation.tif'
p2054
NsS'RS141_x5_0023_redNissl_dirHist.npy'
p2055
NsS'RS141_x5_0023_redNissl_features.npy'
p2056
NsS'RS141_x5_0023_redNissl_texHist.npy'
p2057
NsS'RS141_x5_0023_redNissl_segmentation.npy'
p2058
NsS'RS141_x5_0023_redNissl_texMap.npy'
p2059
NsS'RS141_x5_0023_redNissl_texMap.tif'
p2060
NsS'RS141_x5_0023_redNissl_bg.npy'
p2061
NsS'RS141_x5_0023_redNissl_cropImg.tif'
p2062
NsS'RS141_x5_0023_redNissl_neighbors.npy'
p2063
NsS'RS141_x5_0023_redNissl_fg.npy'
p2064
NssS'RS141_x5_0023_mask.png'
p2065
NssS'0020'
p2066
(dp2067
S'labelings'
p2068
(dp2069
sS'redNissl_pipelineResults'
p2070
(dp2071
S'RS141_x5_0020_redNissl_features.npy'
p2072
NsS'RS141_x5_0020_redNissl_neighbors.npy'
p2073
NsS'RS141_x5_0020_redNissl_fg.npy'
p2074
NsS'RS141_x5_0020_redNissl_segmentation.tif'
p2075
NsS'RS141_x5_0020_redNissl_texMap.tif'
p2076
NsS'RS141_x5_0020_redNissl_cropImg.tif'
p2077
NsS'RS141_x5_0020_redNissl_texMap.npy'
p2078
NsS'RS141_x5_0020_redNissl_texHist.npy'
p2079
NsS'RS141_x5_0020_redNissl_bg.npy'
p2080
NsS'RS141_x5_0020_redNissl_cropMask.npy'
p2081
NsS'RS141_x5_0020_redNissl_dirHist.npy'
p2082
NsS'RS141_x5_0020_redNissl_segmentation.npy'
p2083
NssS'RS141_x5_0020_mask.png'
p2084
NsS'RS141_x5_0020.tif'
p2085
NssS'0007'
p2086
(dp2087
S'labelings'
p2088
(dp2089
sS'redNissl_pipelineResults'
p2090
(dp2091
S'RS141_x5_0007_redNissl_texMap.tif'
p2092
NsS'RS141_x5_0007_redNissl_cropImg.tif'
p2093
NsS'RS141_x5_0007_redNissl_features.npy'
p2094
NsS'RS141_x5_0007_redNissl_neighbors.npy'
p2095
NsS'RS141_x5_0007_redNissl_segmentation.tif'
p2096
NsS'RS141_x5_0007_redNissl_cropMask.npy'
p2097
NsS'RS141_x5_0007_redNissl_texMap.npy'
p2098
NsS'RS141_x5_0007_redNissl_texHist.npy'
p2099
NsS'RS141_x5_0007_redNissl_fg.npy'
p2100
NsS'RS141_x5_0007_redNissl_dirHist.npy'
p2101
NsS'RS141_x5_0007_redNissl_bg.npy'
p2102
NsS'RS141_x5_0007_redNissl_segmentation.npy'
p2103
NssS'RS141_x5_0007_mask.png'
p2104
NsS'RS141_x5_0007.tif'
p2105
NssS'0000'
p2106
(dp2107
S'RS141_x5_0000_mask.png'
p2108
NsS'labelings'
p2109
(dp2110
sS'RS141_x5_0000.tif'
p2111
NsS'redNissl_pipelineResults'
p2112
(dp2113
S'RS141_x5_0000_redNissl_texHist.npy'
p2114
NsS'RS141_x5_0000_redNissl_centroids.npy'
p2115
NsS'RS141_x5_0000_redNissl_cropImg.tif'
p2116
NsS'RS141_x5_0000_redNissl_texMap.npy'
p2117
NsS'RS141_x5_0000_redNissl_fg.npy'
p2118
NsS'RS141_x5_0000_redNissl_dirHist.npy'
p2119
NsS'RS141_x5_0000_redNissl_neighbors.npy'
p2120
NsS'RS141_x5_0000_redNissl_texMap.tif'
p2121
NsS'RS141_x5_0000_redNissl_bg.npy'
p2122
NsS'RS141_x5_0000_redNissl_segmentation.npy'
p2123
NsS'RS141_x5_0000_redNissl_cropMask.npy'
p2124
NsS'RS141_x5_0000_redNissl_segmentation.tif'
p2125
NsS'RS141_x5_0000_redNissl_features.npy'
p2126
NsssS'0001'
p2127
(dp2128
S'labelings'
p2129
(dp2130
S'RS141_x5_0001_models.pkl'
p2131
NssS'redNissl_pipelineResults'
p2132
(dp2133
S'RS141_x5_0001_redNissl_features.npy'
p2134
NsS'RS141_x5_0001_redNissl_cropMask.npy'
p2135
NsS'RS141_x5_0001_redNissl_texMap.npy'
p2136
NsS'RS141_x5_0001_redNissl_texMap.tif'
p2137
NsS'RS141_x5_0001_redNissl_texHist.npy'
p2138
NsS'RS141_x5_0001_redNissl_bg.npy'
p2139
NsS'RS141_x5_0001_redNissl_neighbors.npy'
p2140
NsS'RS141_x5_0001_redNissl_dirHist.npy'
p2141
NsS'RS141_x5_0001_redNissl_cropImg.tif'
p2142
NsS'RS141_x5_0001_redNissl_fg.npy'
p2143
NsS'RS141_x5_0001_redNissl_segmentation.npy'
p2144
NsS'RS141_x5_0001_redNissl_segmentation.tif'
p2145
NssS'RS141_x5_0001_mask.png'
p2146
NsS'RS141_x5_0001.tif'
p2147
NssS'0002'
p2148
(dp2149
S'labelings'
p2150
(dp2151
sS'redNissl_pipelineResults'
p2152
(dp2153
S'RS141_x5_0002_redNissl_segmentation.tif'
p2154
NsS'RS141_x5_0002_redNissl_cropMask.npy'
p2155
NsS'RS141_x5_0002_redNissl_cropImg.tif'
p2156
NsS'RS141_x5_0002_redNissl_texMap.npy'
p2157
NsS'RS141_x5_0002_redNissl_texHist.npy'
p2158
NsS'RS141_x5_0002_redNissl_segmentation.npy'
p2159
NsS'RS141_x5_0002_redNissl_bg.npy'
p2160
NsS'RS141_x5_0002_redNissl_neighbors.npy'
p2161
NsS'RS141_x5_0002_redNissl_dirHist.npy'
p2162
NsS'RS141_x5_0002_redNissl_texMap.tif'
p2163
NsS'RS141_x5_0002_redNissl_features.npy'
p2164
NsS'RS141_x5_0002_redNissl_fg.npy'
p2165
NssS'RS141_x5_0002.tif'
p2166
NsS'RS141_x5_0002_mask.png'
p2167
NssS'0003'
p2168
(dp2169
S'labelings'
p2170
(dp2171
sS'RS141_x5_0003_mask.png'
p2172
NsS'RS141_x5_0003.tif'
p2173
NsS'redNissl_pipelineResults'
p2174
(dp2175
S'RS141_x5_0003_redNissl_neighbors.npy'
p2176
NsS'RS141_x5_0003_redNissl_fg.npy'
p2177
NsS'RS141_x5_0003_redNissl_features.npy'
p2178
NsS'RS141_x5_0003_redNissl_cropImg.tif'
p2179
NsS'RS141_x5_0003_redNissl_segmentation.tif'
p2180
NsS'RS141_x5_0003_redNissl_texHist.npy'
p2181
NsS'RS141_x5_0003_redNissl_bg.npy'
p2182
NsS'RS141_x5_0003_redNissl_segmentation.npy'
p2183
NsS'RS141_x5_0003_redNissl_texMap.npy'
p2184
NsS'RS141_x5_0003_redNissl_texMap.tif'
p2185
NsS'RS141_x5_0003_redNissl_dirHist.npy'
p2186
NsS'RS141_x5_0003_redNissl_cropMask.npy'
p2187
NsssS'0008'
p2188
(dp2189
S'RS141_x5_0008_mask.png'
p2190
NsS'labelings'
p2191
(dp2192
sS'RS141_x5_0008.tif'
p2193
NsS'redNissl_pipelineResults'
p2194
(dp2195
S'RS141_x5_0008_redNissl_fg.npy'
p2196
NsS'RS141_x5_0008_redNissl_cropMask.npy'
p2197
NsS'RS141_x5_0008_redNissl_texMap.tif'
p2198
NsS'RS141_x5_0008_redNissl_features.npy'
p2199
NsS'RS141_x5_0008_redNissl_texHist.npy'
p2200
NsS'RS141_x5_0008_redNissl_segmentation.npy'
p2201
NsS'RS141_x5_0008_redNissl_dirHist.npy'
p2202
NsS'RS141_x5_0008_redNissl_texMap.npy'
p2203
NsS'RS141_x5_0008_redNissl_segmentation.tif'
p2204
NsS'RS141_x5_0008_redNissl_bg.npy'
p2205
NsS'RS141_x5_0008_redNissl_neighbors.npy'
p2206
NsS'RS141_x5_0008_redNissl_cropImg.tif'
p2207
NsssS'0009'
p2208
(dp2209
S'labelings'
p2210
(dp2211
sS'redNissl_pipelineResults'
p2212
(dp2213
S'RS141_x5_0009_redNissl_texMap.tif'
p2214
NsS'RS141_x5_0009_redNissl_fg.npy'
p2215
NsS'RS141_x5_0009_redNissl_bg.npy'
p2216
NsS'RS141_x5_0009_redNissl_neighbors.npy'
p2217
NsS'RS141_x5_0009_redNissl_features.npy'
p2218
NsS'RS141_x5_0009_redNissl_segmentation.tif'
p2219
NsS'RS141_x5_0009_redNissl_cropImg.tif'
p2220
NsS'RS141_x5_0009_redNissl_texMap.npy'
p2221
NsS'RS141_x5_0009_redNissl_texHist.npy'
p2222
NsS'RS141_x5_0009_redNissl_segmentation.npy'
p2223
NsS'RS141_x5_0009_redNissl_dirHist.npy'
p2224
NsS'RS141_x5_0009_redNissl_cropMask.npy'
p2225
NssS'RS141_x5_0009_mask.png'
p2226
NsS'RS141_x5_0009.tif'
p2227
NssS'0005'
p2228
(dp2229
S'labelings'
p2230
(dp2231
sS'RS141_x5_0005.tif'
p2232
NsS'redNissl_pipelineResults'
p2233
(dp2234
S'RS141_x5_0005_redNissl_cropMask.npy'
p2235
NsS'RS141_x5_0005_redNissl_segmentation.tif'
p2236
NsS'RS141_x5_0005_redNissl_dirHist.npy'
p2237
NsS'RS141_x5_0005_redNissl_features.npy'
p2238
NsS'RS141_x5_0005_redNissl_texHist.npy'
p2239
NsS'RS141_x5_0005_redNissl_segmentation.npy'
p2240
NsS'RS141_x5_0005_redNissl_texMap.npy'
p2241
NsS'RS141_x5_0005_redNissl_texMap.tif'
p2242
NsS'RS141_x5_0005_redNissl_bg.npy'
p2243
NsS'RS141_x5_0005_redNissl_cropImg.tif'
p2244
NsS'RS141_x5_0005_redNissl_neighbors.npy'
p2245
NsS'RS141_x5_0005_redNissl_fg.npy'
p2246
NssS'RS141_x5_0005_mask.png'
p2247
NssS'0016'
p2248
(dp2249
S'labelings'
p2250
(dp2251
sS'redNissl_pipelineResults'
p2252
(dp2253
S'RS141_x5_0016_redNissl_texMap.tif'
p2254
NsS'RS141_x5_0016_redNissl_fg.npy'
p2255
NsS'RS141_x5_0016_redNissl_bg.npy'
p2256
NsS'RS141_x5_0016_redNissl_neighbors.npy'
p2257
NsS'RS141_x5_0016_redNissl_features.npy'
p2258
NsS'RS141_x5_0016_redNissl_segmentation.tif'
p2259
NsS'RS141_x5_0016_redNissl_cropImg.tif'
p2260
NsS'RS141_x5_0016_redNissl_texMap.npy'
p2261
NsS'RS141_x5_0016_redNissl_texHist.npy'
p2262
NsS'RS141_x5_0016_redNissl_segmentation.npy'
p2263
NsS'RS141_x5_0016_redNissl_dirHist.npy'
p2264
NsS'RS141_x5_0016_redNissl_cropMask.npy'
p2265
NssS'RS141_x5_0016_mask.png'
p2266
NsS'RS141_x5_0016.tif'
p2267
NssssS'RS140'
p2268
(dp2269
S'x1.25'
p2270
(dp2271
S'0017'
p2272
(dp2273
S'labelings'
p2274
(dp2275
ssS'0022'
p2276
(dp2277
S'labelings'
p2278
(dp2279
ssS'0015'
p2280
(dp2281
S'labelings'
p2282
(dp2283
ssS'0014'
p2284
(dp2285
S'labelings'
p2286
(dp2287
ssS'0013'
p2288
(dp2289
S'labelings'
p2290
(dp2291
ssS'0012'
p2292
(dp2293
S'labelings'
p2294
(dp2295
ssS'0011'
p2296
(dp2297
S'labelings'
p2298
(dp2299
ssS'0005'
p2300
(dp2301
S'labelings'
p2302
(dp2303
ssS'0035'
p2304
(dp2305
S'labelings'
p2306
(dp2307
ssS'0034'
p2308
(dp2309
S'labelings'
p2310
(dp2311
ssS'0036'
p2312
(dp2313
S'labelings'
p2314
(dp2315
ssS'0031'
p2316
(dp2317
S'labelings'
p2318
(dp2319
ssS'0006'
p2320
(dp2321
S'labelings'
p2322
(dp2323
ssS'0033'
p2324
(dp2325
S'labelings'
p2326
(dp2327
ssS'0032'
p2328
(dp2329
S'labelings'
p2330
(dp2331
ssS'0021'
p2332
(dp2333
S'labelings'
p2334
(dp2335
ssS'0010'
p2336
(dp2337
S'labelings'
p2338
(dp2339
ssS'0026'
p2340
(dp2341
S'labelings'
p2342
(dp2343
ssS'0001'
p2344
(dp2345
S'labelings'
p2346
(dp2347
ssS'0024'
p2348
(dp2349
S'labelings'
p2350
(dp2351
ssS'0003'
p2352
(dp2353
S'labelings'
p2354
(dp2355
ssS'0004'
p2356
(dp2357
S'labelings'
p2358
(dp2359
ssS'0023'
p2360
(dp2361
S'labelings'
p2362
(dp2363
ssS'0020'
p2364
(dp2365
S'labelings'
p2366
(dp2367
ssS'0007'
p2368
(dp2369
S'labelings'
p2370
(dp2371
ssS'0000'
p2372
(dp2373
S'labelings'
p2374
(dp2375
ssS'0027'
p2376
(dp2377
S'labelings'
p2378
(dp2379
ssS'0002'
p2380
(dp2381
S'labelings'
p2382
(dp2383
ssS'0025'
p2384
(dp2385
S'labelings'
p2386
(dp2387
ssS'0028'
p2388
(dp2389
S'labelings'
p2390
(dp2391
ssS'0029'
p2392
(dp2393
S'labelings'
p2394
(dp2395
ssS'0008'
p2396
(dp2397
S'labelings'
p2398
(dp2399
ssS'0009'
p2400
(dp2401
S'labelings'
p2402
(dp2403
ssS'0030'
p2404
(dp2405
S'labelings'
p2406
(dp2407
ssS'0019'
p2408
(dp2409
S'labelings'
p2410
(dp2411
ssS'0018'
p2412
(dp2413
S'labelings'
p2414
(dp2415
ssS'0016'
p2416
(dp2417
S'labelings'
p2418
(dp2419
sssS'x20'
p2420
(dp2421
S'0017'
p2422
(dp2423
S'labelings'
p2424
(dp2425
ssS'0022'
p2426
(dp2427
S'labelings'
p2428
(dp2429
ssS'0015'
p2430
(dp2431
S'labelings'
p2432
(dp2433
ssS'0014'
p2434
(dp2435
S'labelings'
p2436
(dp2437
ssS'0013'
p2438
(dp2439
S'labelings'
p2440
(dp2441
ssS'0012'
p2442
(dp2443
S'labelings'
p2444
(dp2445
ssS'0011'
p2446
(dp2447
S'labelings'
p2448
(dp2449
ssS'0005'
p2450
(dp2451
S'labelings'
p2452
(dp2453
ssS'0035'
p2454
(dp2455
S'labelings'
p2456
(dp2457
ssS'0034'
p2458
(dp2459
S'labelings'
p2460
(dp2461
ssS'0036'
p2462
(dp2463
S'labelings'
p2464
(dp2465
ssS'0031'
p2466
(dp2467
S'labelings'
p2468
(dp2469
ssS'0006'
p2470
(dp2471
S'labelings'
p2472
(dp2473
ssS'0033'
p2474
(dp2475
S'labelings'
p2476
(dp2477
ssS'0032'
p2478
(dp2479
S'labelings'
p2480
(dp2481
ssS'0021'
p2482
(dp2483
S'labelings'
p2484
(dp2485
ssS'0010'
p2486
(dp2487
S'labelings'
p2488
(dp2489
ssS'0026'
p2490
(dp2491
S'labelings'
p2492
(dp2493
ssS'0001'
p2494
(dp2495
S'labelings'
p2496
(dp2497
ssS'0024'
p2498
(dp2499
S'labelings'
p2500
(dp2501
ssS'0003'
p2502
(dp2503
S'labelings'
p2504
(dp2505
ssS'0004'
p2506
(dp2507
S'labelings'
p2508
(dp2509
ssS'0023'
p2510
(dp2511
S'labelings'
p2512
(dp2513
ssS'0020'
p2514
(dp2515
S'labelings'
p2516
(dp2517
ssS'0007'
p2518
(dp2519
S'labelings'
p2520
(dp2521
ssS'0000'
p2522
(dp2523
S'labelings'
p2524
(dp2525
ssS'0027'
p2526
(dp2527
S'labelings'
p2528
(dp2529
ssS'0002'
p2530
(dp2531
S'labelings'
p2532
(dp2533
ssS'0025'
p2534
(dp2535
S'labelings'
p2536
(dp2537
ssS'0028'
p2538
(dp2539
S'labelings'
p2540
(dp2541
ssS'0029'
p2542
(dp2543
S'labelings'
p2544
(dp2545
ssS'0008'
p2546
(dp2547
S'labelings'
p2548
(dp2549
ssS'0009'
p2550
(dp2551
S'labelings'
p2552
(dp2553
ssS'0030'
p2554
(dp2555
S'labelings'
p2556
(dp2557
ssS'0019'
p2558
(dp2559
S'labelings'
p2560
(dp2561
ssS'0018'
p2562
(dp2563
S'labelings'
p2564
(dp2565
ssS'0016'
p2566
(dp2567
S'labelings'
p2568
(dp2569
sssS'x5'
p2570
(dp2571
S'0017'
p2572
(dp2573
S'labelings'
p2574
(dp2575
ssS'0022'
p2576
(dp2577
S'labelings'
p2578
(dp2579
ssS'0015'
p2580
(dp2581
S'labelings'
p2582
(dp2583
ssS'0014'
p2584
(dp2585
S'labelings'
p2586
(dp2587
ssS'0013'
p2588
(dp2589
S'labelings'
p2590
(dp2591
ssS'0012'
p2592
(dp2593
S'labelings'
p2594
(dp2595
ssS'0011'
p2596
(dp2597
S'labelings'
p2598
(dp2599
ssS'0005'
p2600
(dp2601
S'labelings'
p2602
(dp2603
ssS'0035'
p2604
(dp2605
S'labelings'
p2606
(dp2607
ssS'0034'
p2608
(dp2609
S'labelings'
p2610
(dp2611
ssS'0036'
p2612
(dp2613
S'labelings'
p2614
(dp2615
ssS'0031'
p2616
(dp2617
S'labelings'
p2618
(dp2619
ssS'0006'
p2620
(dp2621
S'labelings'
p2622
(dp2623
ssS'0033'
p2624
(dp2625
S'labelings'
p2626
(dp2627
ssS'0032'
p2628
(dp2629
S'labelings'
p2630
(dp2631
ssS'0021'
p2632
(dp2633
S'labelings'
p2634
(dp2635
ssS'0010'
p2636
(dp2637
S'labelings'
p2638
(dp2639
ssS'0026'
p2640
(dp2641
S'labelings'
p2642
(dp2643
ssS'0001'
p2644
(dp2645
S'labelings'
p2646
(dp2647
ssS'0024'
p2648
(dp2649
S'labelings'
p2650
(dp2651
ssS'0003'
p2652
(dp2653
S'labelings'
p2654
(dp2655
ssS'0004'
p2656
(dp2657
S'labelings'
p2658
(dp2659
ssS'0023'
p2660
(dp2661
S'labelings'
p2662
(dp2663
ssS'0020'
p2664
(dp2665
S'labelings'
p2666
(dp2667
ssS'0007'
p2668
(dp2669
S'labelings'
p2670
(dp2671
ssS'0000'
p2672
(dp2673
S'labelings'
p2674
(dp2675
ssS'0027'
p2676
(dp2677
S'labelings'
p2678
(dp2679
ssS'0002'
p2680
(dp2681
S'labelings'
p2682
(dp2683
ssS'0025'
p2684
(dp2685
S'labelings'
p2686
(dp2687
ssS'0028'
p2688
(dp2689
S'labelings'
p2690
(dp2691
ssS'0029'
p2692
(dp2693
S'labelings'
p2694
(dp2695
ssS'0008'
p2696
(dp2697
S'labelings'
p2698
(dp2699
ssS'0009'
p2700
(dp2701
S'labelings'
p2702
(dp2703
ssS'0030'
p2704
(dp2705
S'labelings'
p2706
(dp2707
ssS'0019'
p2708
(dp2709
S'labelings'
p2710
(dp2711
ssS'0018'
p2712
(dp2713
S'labelings'
p2714
(dp2715
ssS'0016'
p2716
(dp2717
S'labelings'
p2718
(dp2719
sssss.