(lp1
(dp2
S'available_res'
p3
(lp4
S'x5'
p5
asS'sections'
p6
(lp7
(dp8
S'index'
p9
I0
sa(dp10
g9
I1
sa(dp11
g9
I2
sa(dp12
g9
I3
sa(dp13
g9
I4
sa(dp14
g9
I5
sa(dp15
g9
I6
sa(dp16
g9
I7
sa(dp17
g9
I8
sa(dp18
g9
I9
sa(dp19
g9
I10
sa(dp20
g9
I11
sa(dp21
g9
I12
sa(dp22
g9
I13
sa(dp23
g9
I14
sa(dp24
g9
I15
sa(dp25
g9
I16
sa(dp26
g9
I17
sa(dp27
g9
I18
sa(dp28
g9
I19
sa(dp29
g9
I20
sa(dp30
g9
I21
sa(dp31
g9
I22
sa(dp32
g9
I23
sa(dp33
g9
I24
sa(dp34
g9
I25
sa(dp35
g9
I26
sa(dp36
g9
I27
sasS'name'
p37
S'RS58'
p38
sa(dp39
g3
(lp40
S'x5'
p41
asg6
(lp42
(dp43
g9
I0
sa(dp44
g9
I1
sa(dp45
g9
I2
sa(dp46
g9
I3
sa(dp47
g9
I4
sa(dp48
g9
I5
sa(dp49
g9
I6
sa(dp50
g9
I7
sa(dp51
g9
I8
sa(dp52
g9
I9
sa(dp53
g9
I10
sa(dp54
g9
I11
sa(dp55
g9
I12
sa(dp56
g9
I13
sa(dp57
g9
I14
sa(dp58
g9
I15
sa(dp59
g9
I16
sa(dp60
g9
I17
sa(dp61
g9
I18
sa(dp62
g9
I19
sa(dp63
g9
I20
sa(dp64
g9
I21
sa(dp65
g9
I22
sa(dp66
g9
I23
sa(dp67
g9
I24
sa(dp68
g9
I25
sa(dp69
g9
I26
sa(dp70
g9
I27
sa(dp71
g9
I28
sa(dp72
g9
I29
sa(dp73
g9
I30
sa(dp74
g9
I31
sa(dp75
g9
I32
sa(dp76
g9
I33
sasg37
S'RS139'
p77
sa(dp78
g3
(lp79
S'x5'
p80
asg6
(lp81
(dp82
g9
I0
sa(dp83
g9
I1
sa(dp84
g9
I2
sa(dp85
g9
I3
sa(dp86
g9
I4
sa(dp87
g9
I5
sa(dp88
g9
I6
sa(dp89
g9
I7
sa(dp90
g9
I8
sa(dp91
g9
I9
sa(dp92
g9
I10
sa(dp93
g9
I11
sa(dp94
g9
I12
sa(dp95
g9
I13
sa(dp96
g9
I14
sa(dp97
g9
I15
sa(dp98
g9
I16
sa(dp99
g9
I17
sa(dp100
g9
I18
sa(dp101
g9
I19
sa(dp102
g9
I20
sa(dp103
g9
I21
sa(dp104
g9
I22
sa(dp105
g9
I23
sasg37
S'RS141'
p106
sa(dp107
g3
(lp108
S'x5'
p109
asg6
(lp110
(dp111
g9
I0
sa(dp112
g9
I1
sa(dp113
g9
I2
sa(dp114
g9
I3
sa(dp115
g9
I4
sa(dp116
g9
I5
sa(dp117
g9
I6
sa(dp118
g9
I7
sa(dp119
g9
I8
sa(dp120
g9
I9
sa(dp121
g9
I10
sa(dp122
g9
I11
sa(dp123
g9
I12
sa(dp124
g9
I13
sa(dp125
g9
I14
sa(dp126
g9
I15
sa(dp127
g9
I16
sa(dp128
g9
I17
sa(dp129
g9
I18
sa(dp130
g9
I19
sa(dp131
g9
I20
sa(dp132
g9
I21
sa(dp133
g9
I22
sa(dp134
g9
I23
sa(dp135
g9
I24
sa(dp136
g9
I25
sa(dp137
g9
I26
sa(dp138
g9
I27
sa(dp139
g9
I28
sa(dp140
g9
I29
sa(dp141
g9
I30
sa(dp142
g9
I31
sa(dp143
g9
I32
sa(dp144
g9
I33
sa(dp145
g9
I34
sa(dp146
g9
I35
sa(dp147
g9
I36
sasg37
S'RS140'
p148
sa.