(dp1
S'DavidData'
p2
(dp3
S'RS139'
p4
(dp5
S'x1.25'
p6
(dp7
S'0017'
p8
(dp9
S'labelings'
p10
(dp11
ssS'0022'
p12
(dp13
S'labelings'
p14
(dp15
ssS'0015'
p16
(dp17
S'labelings'
p18
(dp19
ssS'0014'
p20
(dp21
S'labelings'
p22
(dp23
ssS'0013'
p24
(dp25
S'labelings'
p26
(dp27
ssS'0012'
p28
(dp29
S'labelings'
p30
(dp31
ssS'0011'
p32
(dp33
S'labelings'
p34
(dp35
ssS'0005'
p36
(dp37
S'labelings'
p38
(dp39
ssS'0031'
p40
(dp41
S'labelings'
p42
(dp43
ssS'0006'
p44
(dp45
S'labelings'
p46
(dp47
ssS'0033'
p48
(dp49
S'labelings'
p50
(dp51
ssS'0032'
p52
(dp53
S'labelings'
p54
(dp55
ssS'0021'
p56
(dp57
S'labelings'
p58
(dp59
ssS'0010'
p60
(dp61
S'labelings'
p62
(dp63
ssS'0026'
p64
(dp65
S'labelings'
p66
(dp67
ssS'0001'
p68
(dp69
S'labelings'
p70
(dp71
ssS'0024'
p72
(dp73
S'labelings'
p74
(dp75
ssS'0003'
p76
(dp77
S'labelings'
p78
(dp79
ssS'0004'
p80
(dp81
S'labelings'
p82
(dp83
ssS'0023'
p84
(dp85
S'labelings'
p86
(dp87
ssS'0020'
p88
(dp89
S'labelings'
p90
(dp91
ssS'0007'
p92
(dp93
S'labelings'
p94
(dp95
ssS'0000'
p96
(dp97
S'labelings'
p98
(dp99
ssS'0027'
p100
(dp101
S'labelings'
p102
(dp103
ssS'0002'
p104
(dp105
S'labelings'
p106
(dp107
ssS'0025'
p108
(dp109
S'labelings'
p110
(dp111
ssS'0028'
p112
(dp113
S'labelings'
p114
(dp115
ssS'0029'
p116
(dp117
S'labelings'
p118
(dp119
ssS'0008'
p120
(dp121
S'labelings'
p122
(dp123
ssS'0009'
p124
(dp125
S'labelings'
p126
(dp127
ssS'0030'
p128
(dp129
S'labelings'
p130
(dp131
ssS'0019'
p132
(dp133
S'labelings'
p134
(dp135
ssS'0018'
p136
(dp137
S'labelings'
p138
(dp139
ssS'0016'
p140
(dp141
S'labelings'
p142
(dp143
sssS'x20'
p144
(dp145
S'0017'
p146
(dp147
S'labelings'
p148
(dp149
ssS'0022'
p150
(dp151
S'labelings'
p152
(dp153
ssS'0015'
p154
(dp155
S'labelings'
p156
(dp157
ssS'0014'
p158
(dp159
S'labelings'
p160
(dp161
ssS'0013'
p162
(dp163
S'labelings'
p164
(dp165
ssS'0012'
p166
(dp167
S'labelings'
p168
(dp169
ssS'0011'
p170
(dp171
S'labelings'
p172
(dp173
ssS'0005'
p174
(dp175
S'labelings'
p176
(dp177
ssS'0006'
p178
(dp179
S'labelings'
p180
(dp181
ssS'0019'
p182
(dp183
S'labelings'
p184
(dp185
ssS'0018'
p186
(dp187
S'labelings'
p188
(dp189
ssS'0021'
p190
(dp191
S'labelings'
p192
(dp193
ssS'0010'
p194
(dp195
S'labelings'
p196
(dp197
ssS'0026'
p198
(dp199
S'labelings'
p200
(dp201
ssS'0001'
p202
(dp203
S'labelings'
p204
(dp205
ssS'0024'
p206
(dp207
S'labelings'
p208
(dp209
ssS'0003'
p210
(dp211
S'labelings'
p212
(dp213
ssS'0004'
p214
(dp215
S'labelings'
p216
(dp217
ssS'0023'
p218
(dp219
S'labelings'
p220
(dp221
ssS'0020'
p222
(dp223
S'labelings'
p224
(dp225
ssS'0007'
p226
(dp227
S'labelings'
p228
(dp229
ssS'0000'
p230
(dp231
S'labelings'
p232
(dp233
ssS'0027'
p234
(dp235
S'labelings'
p236
(dp237
ssS'0002'
p238
(dp239
S'labelings'
p240
(dp241
ssS'0025'
p242
(dp243
S'labelings'
p244
(dp245
ssS'0028'
p246
(dp247
S'labelings'
p248
(dp249
ssS'0008'
p250
(dp251
S'labelings'
p252
(dp253
ssS'0009'
p254
(dp255
S'labelings'
p256
(dp257
ssS'0016'
p258
(dp259
S'labelings'
p260
(dp261
sssS'x5'
p262
(dp263
S'0017'
p264
(dp265
S'labelings'
p266
(dp267
ssS'0022'
p268
(dp269
S'labelings'
p270
(dp271
ssS'0015'
p272
(dp273
S'labelings'
p274
(dp275
ssS'0014'
p276
(dp277
S'labelings'
p278
(dp279
ssS'0013'
p280
(dp281
S'labelings'
p282
(dp283
ssS'0012'
p284
(dp285
S'labelings'
p286
(dp287
ssS'0011'
p288
(dp289
S'labelings'
p290
(dp291
ssS'0005'
p292
(dp293
S'labelings'
p294
(dp295
ssS'0031'
p296
(dp297
S'labelings'
p298
(dp299
ssS'0006'
p300
(dp301
S'labelings'
p302
(dp303
ssS'0033'
p304
(dp305
S'labelings'
p306
(dp307
ssS'0032'
p308
(dp309
S'labelings'
p310
(dp311
ssS'0021'
p312
(dp313
S'labelings'
p314
(dp315
ssS'0010'
p316
(dp317
S'labelings'
p318
(dp319
ssS'0026'
p320
(dp321
S'labelings'
p322
(dp323
ssS'0001'
p324
(dp325
S'labelings'
p326
(dp327
ssS'0024'
p328
(dp329
S'labelings'
p330
(dp331
ssS'0003'
p332
(dp333
S'labelings'
p334
(dp335
ssS'0004'
p336
(dp337
S'labelings'
p338
(dp339
ssS'0023'
p340
(dp341
S'labelings'
p342
(dp343
ssS'0020'
p344
(dp345
S'labelings'
p346
(dp347
ssS'0007'
p348
(dp349
S'labelings'
p350
(dp351
ssS'0000'
p352
(dp353
S'labelings'
p354
(dp355
ssS'0027'
p356
(dp357
S'labelings'
p358
(dp359
ssS'0002'
p360
(dp361
S'labelings'
p362
(dp363
ssS'0025'
p364
(dp365
S'labelings'
p366
(dp367
ssS'0028'
p368
(dp369
S'labelings'
p370
(dp371
ssS'0029'
p372
(dp373
S'labelings'
p374
(dp375
ssS'0008'
p376
(dp377
S'labelings'
p378
(dp379
ssS'0009'
p380
(dp381
S'labelings'
p382
(dp383
ssS'0030'
p384
(dp385
S'labelings'
p386
(dp387
ssS'0019'
p388
(dp389
S'labelings'
p390
(dp391
ssS'0018'
p392
(dp393
S'labelings'
p394
(dp395
ssS'0016'
p396
(dp397
S'labelings'
p398
(dp399
ssssS'RI6'
p400
(dp401
S'x1.25'
p402
(dp403
S'0017'
p404
(dp405
S'labelings'
p406
(dp407
ssS'0004'
p408
(dp409
S'labelings'
p410
(dp411
ssS'0015'
p412
(dp413
S'labelings'
p414
(dp415
ssS'0014'
p416
(dp417
S'labelings'
p418
(dp419
ssS'0013'
p420
(dp421
S'labelings'
p422
(dp423
ssS'0012'
p424
(dp425
S'labelings'
p426
(dp427
ssS'0011'
p428
(dp429
S'labelings'
p430
(dp431
ssS'0005'
p432
(dp433
S'labelings'
p434
(dp435
ssS'0035'
p436
(dp437
S'labelings'
p438
(dp439
ssS'0034'
p440
(dp441
S'labelings'
p442
(dp443
ssS'0037'
p444
(dp445
S'labelings'
p446
(dp447
ssS'0026'
p448
(dp449
S'labelings'
p450
(dp451
ssS'0031'
p452
(dp453
S'labelings'
p454
(dp455
ssS'0006'
p456
(dp457
S'labelings'
p458
(dp459
ssS'0033'
p460
(dp461
S'labelings'
p462
(dp463
ssS'0032'
p464
(dp465
S'labelings'
p466
(dp467
ssS'0044'
p468
(dp469
S'labelings'
p470
(dp471
ssS'0021'
p472
(dp473
S'labelings'
p474
(dp475
ssS'0010'
p476
(dp477
S'labelings'
p478
(dp479
ssS'0039'
p480
(dp481
S'labelings'
p482
(dp483
ssS'0029'
p484
(dp485
S'labelings'
p486
(dp487
ssS'0038'
p488
(dp489
S'labelings'
p490
(dp491
ssS'0024'
p492
(dp493
S'labelings'
p494
(dp495
ssS'0003'
p496
(dp497
S'labelings'
p498
(dp499
ssS'0036'
p500
(dp501
S'labelings'
p502
(dp503
ssS'0047'
p504
(dp505
S'labelings'
p506
(dp507
ssS'0028'
p508
(dp509
S'labelings'
p510
(dp511
ssS'0048'
p512
(dp513
S'labelings'
p514
(dp515
ssS'0023'
p516
(dp517
S'labelings'
p518
(dp519
ssS'0020'
p520
(dp521
S'labelings'
p522
(dp523
ssS'0007'
p524
(dp525
S'labelings'
p526
(dp527
ssS'0000'
p528
(dp529
S'labelings'
p530
(dp531
ssS'0027'
p532
(dp533
S'labelings'
p534
(dp535
ssS'0002'
p536
(dp537
S'labelings'
p538
(dp539
ssS'0025'
p540
(dp541
S'labelings'
p542
(dp543
ssS'0040'
p544
(dp545
S'labelings'
p546
(dp547
ssS'0041'
p548
(dp549
S'labelings'
p550
(dp551
ssS'0042'
p552
(dp553
S'labelings'
p554
(dp555
ssS'0043'
p556
(dp557
S'labelings'
p558
(dp559
ssS'0008'
p560
(dp561
S'labelings'
p562
(dp563
ssS'0009'
p564
(dp565
S'labelings'
p566
(dp567
ssS'0046'
p568
(dp569
S'labelings'
p570
(dp571
ssS'0030'
p572
(dp573
S'labelings'
p574
(dp575
ssS'0022'
p576
(dp577
S'labelings'
p578
(dp579
ssS'0019'
p580
(dp581
S'labelings'
p582
(dp583
ssS'0018'
p584
(dp585
S'labelings'
p586
(dp587
ssS'0001'
p588
(dp589
S'labelings'
p590
(dp591
ssS'0016'
p592
(dp593
S'labelings'
p594
(dp595
ssS'0045'
p596
(dp597
S'labelings'
p598
(dp599
sssS'x5'
p600
(dp601
S'0017'
p602
(dp603
S'labelings'
p604
(dp605
ssS'0004'
p606
(dp607
S'labelings'
p608
(dp609
ssS'0015'
p610
(dp611
S'labelings'
p612
(dp613
ssS'0014'
p614
(dp615
S'labelings'
p616
(dp617
ssS'0013'
p618
(dp619
S'labelings'
p620
(dp621
ssS'0012'
p622
(dp623
S'labelings'
p624
(dp625
ssS'0011'
p626
(dp627
S'labelings'
p628
(dp629
ssS'0005'
p630
(dp631
S'labelings'
p632
(dp633
ssS'0035'
p634
(dp635
S'labelings'
p636
(dp637
ssS'0034'
p638
(dp639
S'labelings'
p640
(dp641
ssS'0037'
p642
(dp643
S'labelings'
p644
(dp645
ssS'0026'
p646
(dp647
S'labelings'
p648
(dp649
ssS'0031'
p650
(dp651
S'labelings'
p652
(dp653
ssS'0006'
p654
(dp655
S'labelings'
p656
(dp657
ssS'0033'
p658
(dp659
S'labelings'
p660
(dp661
ssS'0032'
p662
(dp663
S'labelings'
p664
(dp665
ssS'0044'
p666
(dp667
S'labelings'
p668
(dp669
ssS'0021'
p670
(dp671
S'labelings'
p672
(dp673
ssS'0010'
p674
(dp675
S'labelings'
p676
(dp677
ssS'0039'
p678
(dp679
S'labelings'
p680
(dp681
ssS'0029'
p682
(dp683
S'labelings'
p684
(dp685
ssS'0038'
p686
(dp687
S'labelings'
p688
(dp689
ssS'0024'
p690
(dp691
S'labelings'
p692
(dp693
ssS'0003'
p694
(dp695
S'labelings'
p696
(dp697
ssS'0036'
p698
(dp699
S'labelings'
p700
(dp701
ssS'0047'
p702
(dp703
S'labelings'
p704
(dp705
ssS'0028'
p706
(dp707
S'labelings'
p708
(dp709
ssS'0048'
p710
(dp711
S'labelings'
p712
(dp713
ssS'0023'
p714
(dp715
S'labelings'
p716
(dp717
ssS'0020'
p718
(dp719
S'labelings'
p720
(dp721
ssS'0007'
p722
(dp723
S'labelings'
p724
(dp725
ssS'0000'
p726
(dp727
S'labelings'
p728
(dp729
ssS'0027'
p730
(dp731
S'labelings'
p732
(dp733
ssS'0002'
p734
(dp735
S'labelings'
p736
(dp737
ssS'0025'
p738
(dp739
S'labelings'
p740
(dp741
ssS'0040'
p742
(dp743
S'labelings'
p744
(dp745
ssS'0041'
p746
(dp747
S'labelings'
p748
(dp749
ssS'0042'
p750
(dp751
S'labelings'
p752
(dp753
ssS'0043'
p754
(dp755
S'labelings'
p756
(dp757
ssS'0008'
p758
(dp759
S'labelings'
p760
(dp761
ssS'0009'
p762
(dp763
S'labelings'
p764
(dp765
ssS'0046'
p766
(dp767
S'labelings'
p768
(dp769
ssS'0030'
p770
(dp771
S'labelings'
p772
(dp773
ssS'0022'
p774
(dp775
S'labelings'
p776
(dp777
ssS'0019'
p778
(dp779
S'labelings'
p780
(dp781
ssS'0018'
p782
(dp783
S'labelings'
p784
(dp785
ssS'0001'
p786
(dp787
S'labelings'
p788
(dp789
ssS'0016'
p790
(dp791
S'labelings'
p792
(dp793
ssS'0045'
p794
(dp795
S'labelings'
p796
(dp797
ssssS'RS58'
p798
(dp799
S'x1.25'
p800
(dp801
S'0017'
p802
(dp803
S'labelings'
p804
(dp805
ssS'0022'
p806
(dp807
S'labelings'
p808
(dp809
ssS'0015'
p810
(dp811
S'labelings'
p812
(dp813
ssS'0014'
p814
(dp815
S'labelings'
p816
(dp817
ssS'0013'
p818
(dp819
S'labelings'
p820
(dp821
ssS'0012'
p822
(dp823
S'labelings'
p824
(dp825
ssS'0011'
p826
(dp827
S'labelings'
p828
(dp829
ssS'0005'
p830
(dp831
S'labelings'
p832
(dp833
ssS'0006'
p834
(dp835
S'labelings'
p836
(dp837
ssS'0019'
p838
(dp839
S'labelings'
p840
(dp841
ssS'0018'
p842
(dp843
S'labelings'
p844
(dp845
ssS'0021'
p846
(dp847
S'labelings'
p848
(dp849
ssS'0010'
p850
(dp851
S'labelings'
p852
(dp853
ssS'0026'
p854
(dp855
S'labelings'
p856
(dp857
ssS'0001'
p858
(dp859
S'labelings'
p860
(dp861
ssS'0024'
p862
(dp863
S'labelings'
p864
(dp865
ssS'0003'
p866
(dp867
S'labelings'
p868
(dp869
ssS'0004'
p870
(dp871
S'labelings'
p872
(dp873
ssS'0023'
p874
(dp875
S'labelings'
p876
(dp877
ssS'0020'
p878
(dp879
S'labelings'
p880
(dp881
ssS'0007'
p882
(dp883
S'labelings'
p884
(dp885
ssS'0000'
p886
(dp887
S'labelings'
p888
(dp889
ssS'0027'
p890
(dp891
S'labelings'
p892
(dp893
ssS'0002'
p894
(dp895
S'labelings'
p896
(dp897
ssS'0025'
p898
(dp899
S'labelings'
p900
(dp901
ssS'0008'
p902
(dp903
S'labelings'
p904
(dp905
ssS'0009'
p906
(dp907
S'labelings'
p908
(dp909
ssS'0016'
p910
(dp911
S'labelings'
p912
(dp913
sssS'x20'
p914
(dp915
S'0017'
p916
(dp917
S'labelings'
p918
(dp919
ssS'0022'
p920
(dp921
S'labelings'
p922
(dp923
ssS'0015'
p924
(dp925
S'labelings'
p926
(dp927
ssS'0014'
p928
(dp929
S'labelings'
p930
(dp931
ssS'0013'
p932
(dp933
S'labelings'
p934
(dp935
ssS'0012'
p936
(dp937
S'labelings'
p938
(dp939
ssS'0011'
p940
(dp941
S'labelings'
p942
(dp943
ssS'0005'
p944
(dp945
S'labelings'
p946
(dp947
ssS'0006'
p948
(dp949
S'labelings'
p950
(dp951
ssS'0019'
p952
(dp953
S'labelings'
p954
(dp955
ssS'0018'
p956
(dp957
S'labelings'
p958
(dp959
ssS'0021'
p960
(dp961
S'labelings'
p962
(dp963
ssS'0010'
p964
(dp965
S'labelings'
p966
(dp967
ssS'0026'
p968
(dp969
S'labelings'
p970
(dp971
ssS'0001'
p972
(dp973
S'labelings'
p974
(dp975
ssS'0024'
p976
(dp977
S'labelings'
p978
(dp979
ssS'0003'
p980
(dp981
S'labelings'
p982
(dp983
ssS'0004'
p984
(dp985
S'labelings'
p986
(dp987
ssS'0023'
p988
(dp989
S'labelings'
p990
(dp991
ssS'0020'
p992
(dp993
S'labelings'
p994
(dp995
ssS'0007'
p996
(dp997
S'labelings'
p998
(dp999
ssS'0000'
p1000
(dp1001
S'labelings'
p1002
(dp1003
ssS'0027'
p1004
(dp1005
S'labelings'
p1006
(dp1007
ssS'0002'
p1008
(dp1009
S'labelings'
p1010
(dp1011
ssS'0025'
p1012
(dp1013
S'labelings'
p1014
(dp1015
ssS'0008'
p1016
(dp1017
S'labelings'
p1018
(dp1019
ssS'0009'
p1020
(dp1021
S'labelings'
p1022
(dp1023
ssS'0016'
p1024
(dp1025
S'labelings'
p1026
(dp1027
sssS'x5'
p1028
(dp1029
S'0017'
p1030
(dp1031
S'labelings'
p1032
(dp1033
ssS'0022'
p1034
(dp1035
S'labelings'
p1036
(dp1037
ssS'0015'
p1038
(dp1039
S'labelings'
p1040
(dp1041
ssS'0014'
p1042
(dp1043
S'labelings'
p1044
(dp1045
ssS'0013'
p1046
(dp1047
S'labelings'
p1048
(dp1049
ssS'0012'
p1050
(dp1051
S'labelings'
p1052
(dp1053
ssS'0011'
p1054
(dp1055
S'labelings'
p1056
(dp1057
ssS'0005'
p1058
(dp1059
S'labelings'
p1060
(dp1061
ssS'0006'
p1062
(dp1063
S'labelings'
p1064
(dp1065
ssS'0019'
p1066
(dp1067
S'labelings'
p1068
(dp1069
ssS'0018'
p1070
(dp1071
S'labelings'
p1072
(dp1073
ssS'0021'
p1074
(dp1075
S'labelings'
p1076
(dp1077
ssS'0010'
p1078
(dp1079
S'labelings'
p1080
(dp1081
ssS'0026'
p1082
(dp1083
S'labelings'
p1084
(dp1085
ssS'0001'
p1086
(dp1087
S'labelings'
p1088
(dp1089
ssS'0024'
p1090
(dp1091
S'labelings'
p1092
(dp1093
ssS'0003'
p1094
(dp1095
S'labelings'
p1096
(dp1097
ssS'0004'
p1098
(dp1099
S'labelings'
p1100
(dp1101
ssS'0023'
p1102
(dp1103
S'labelings'
p1104
(dp1105
ssS'0020'
p1106
(dp1107
S'labelings'
p1108
(dp1109
ssS'0007'
p1110
(dp1111
S'labelings'
p1112
(dp1113
ssS'0000'
p1114
(dp1115
S'labelings'
p1116
(dp1117
ssS'0027'
p1118
(dp1119
S'labelings'
p1120
(dp1121
ssS'0002'
p1122
(dp1123
S'labelings'
p1124
(dp1125
ssS'0025'
p1126
(dp1127
S'labelings'
p1128
(dp1129
ssS'0008'
p1130
(dp1131
S'labelings'
p1132
(dp1133
ssS'0009'
p1134
(dp1135
S'labelings'
p1136
(dp1137
ssS'0016'
p1138
(dp1139
S'labelings'
p1140
(dp1141
ssssS'RS76'
p1142
(dp1143
S'x5'
p1144
(dp1145
S'0017'
p1146
(dp1147
S'labelings'
p1148
(dp1149
ssS'0022'
p1150
(dp1151
S'labelings'
p1152
(dp1153
ssS'0015'
p1154
(dp1155
S'labelings'
p1156
(dp1157
ssS'0014'
p1158
(dp1159
S'labelings'
p1160
(dp1161
ssS'0013'
p1162
(dp1163
S'labelings'
p1164
(dp1165
ssS'0012'
p1166
(dp1167
S'labelings'
p1168
(dp1169
ssS'0011'
p1170
(dp1171
S'labelings'
p1172
(dp1173
ssS'0005'
p1174
(dp1175
S'labelings'
p1176
(dp1177
ssS'0035'
p1178
(dp1179
S'labelings'
p1180
(dp1181
ssS'0034'
p1182
(dp1183
S'labelings'
p1184
(dp1185
ssS'0031'
p1186
(dp1187
S'labelings'
p1188
(dp1189
ssS'0006'
p1190
(dp1191
S'labelings'
p1192
(dp1193
ssS'0033'
p1194
(dp1195
S'labelings'
p1196
(dp1197
ssS'0032'
p1198
(dp1199
S'labelings'
p1200
(dp1201
ssS'0021'
p1202
(dp1203
S'labelings'
p1204
(dp1205
ssS'0010'
p1206
(dp1207
S'labelings'
p1208
(dp1209
ssS'0026'
p1210
(dp1211
S'labelings'
p1212
(dp1213
ssS'0001'
p1214
(dp1215
S'labelings'
p1216
(dp1217
ssS'0024'
p1218
(dp1219
S'labelings'
p1220
(dp1221
ssS'0003'
p1222
(dp1223
S'labelings'
p1224
(dp1225
ssS'0004'
p1226
(dp1227
S'labelings'
p1228
(dp1229
ssS'0023'
p1230
(dp1231
S'labelings'
p1232
(dp1233
ssS'0020'
p1234
(dp1235
S'labelings'
p1236
(dp1237
ssS'0007'
p1238
(dp1239
S'labelings'
p1240
(dp1241
ssS'0000'
p1242
(dp1243
S'labelings'
p1244
(dp1245
ssS'0027'
p1246
(dp1247
S'labelings'
p1248
(dp1249
ssS'0002'
p1250
(dp1251
S'labelings'
p1252
(dp1253
ssS'0025'
p1254
(dp1255
S'labelings'
p1256
(dp1257
ssS'0028'
p1258
(dp1259
S'labelings'
p1260
(dp1261
ssS'0029'
p1262
(dp1263
S'labelings'
p1264
(dp1265
ssS'0008'
p1266
(dp1267
S'labelings'
p1268
(dp1269
ssS'0009'
p1270
(dp1271
S'labelings'
p1272
(dp1273
ssS'0030'
p1274
(dp1275
S'labelings'
p1276
(dp1277
ssS'0019'
p1278
(dp1279
S'labelings'
p1280
(dp1281
ssS'0018'
p1282
(dp1283
S'labelings'
p1284
(dp1285
ssS'0016'
p1286
(dp1287
S'labelings'
p1288
(dp1289
ssssS'RS155'
p1290
(dp1291
S'x5'
p1292
(dp1293
S'0017'
p1294
(dp1295
S'labelings'
p1296
(dp1297
ssS'0022'
p1298
(dp1299
S'labelings'
p1300
(dp1301
ssS'0015'
p1302
(dp1303
S'labelings'
p1304
(dp1305
ssS'0014'
p1306
(dp1307
S'labelings'
p1308
(dp1309
ssS'0013'
p1310
(dp1311
S'labelings'
p1312
(dp1313
ssS'0012'
p1314
(dp1315
S'labelings'
p1316
(dp1317
ssS'0011'
p1318
(dp1319
S'labelings'
p1320
(dp1321
ssS'0005'
p1322
(dp1323
S'labelings'
p1324
(dp1325
ssS'0035'
p1326
(dp1327
S'labelings'
p1328
(dp1329
ssS'0034'
p1330
(dp1331
S'labelings'
p1332
(dp1333
ssS'0037'
p1334
(dp1335
S'labelings'
p1336
(dp1337
ssS'0036'
p1338
(dp1339
S'labelings'
p1340
(dp1341
ssS'0031'
p1342
(dp1343
S'labelings'
p1344
(dp1345
ssS'0006'
p1346
(dp1347
S'labelings'
p1348
(dp1349
ssS'0033'
p1350
(dp1351
S'labelings'
p1352
(dp1353
ssS'0032'
p1354
(dp1355
S'labelings'
p1356
(dp1357
ssS'0021'
p1358
(dp1359
S'labelings'
p1360
(dp1361
ssS'0010'
p1362
(dp1363
S'labelings'
p1364
(dp1365
ssS'0026'
p1366
(dp1367
S'labelings'
p1368
(dp1369
ssS'0038'
p1370
(dp1371
S'labelings'
p1372
(dp1373
ssS'0024'
p1374
(dp1375
S'labelings'
p1376
(dp1377
ssS'0003'
p1378
(dp1379
S'labelings'
p1380
(dp1381
ssS'0004'
p1382
(dp1383
S'labelings'
p1384
(dp1385
ssS'0023'
p1386
(dp1387
S'labelings'
p1388
(dp1389
ssS'0020'
p1390
(dp1391
S'labelings'
p1392
(dp1393
ssS'0007'
p1394
(dp1395
S'labelings'
p1396
(dp1397
ssS'0000'
p1398
(dp1399
S'labelings'
p1400
(dp1401
ssS'0027'
p1402
(dp1403
S'labelings'
p1404
(dp1405
ssS'0002'
p1406
(dp1407
S'labelings'
p1408
(dp1409
ssS'0025'
p1410
(dp1411
S'labelings'
p1412
(dp1413
ssS'0028'
p1414
(dp1415
S'labelings'
p1416
(dp1417
ssS'0029'
p1418
(dp1419
S'labelings'
p1420
(dp1421
ssS'0008'
p1422
(dp1423
S'labelings'
p1424
(dp1425
ssS'0009'
p1426
(dp1427
S'labelings'
p1428
(dp1429
ssS'0030'
p1430
(dp1431
S'labelings'
p1432
(dp1433
ssS'0019'
p1434
(dp1435
S'labelings'
p1436
(dp1437
ssS'0018'
p1438
(dp1439
S'labelings'
p1440
(dp1441
ssS'0001'
p1442
(dp1443
S'labelings'
p1444
(dp1445
ssS'0039'
p1446
(dp1447
S'labelings'
p1448
(dp1449
ssS'0016'
p1450
(dp1451
S'labelings'
p1452
(dp1453
ssssS'RS141'
p1454
(dp1455
S'x1.25'
p1456
(dp1457
S'0017'
p1458
(dp1459
S'labelings'
p1460
(dp1461
ssS'0022'
p1462
(dp1463
S'labelings'
p1464
(dp1465
ssS'0015'
p1466
(dp1467
S'labelings'
p1468
(dp1469
ssS'0014'
p1470
(dp1471
S'labelings'
p1472
(dp1473
ssS'0013'
p1474
(dp1475
S'labelings'
p1476
(dp1477
ssS'0012'
p1478
(dp1479
S'labelings'
p1480
(dp1481
ssS'0011'
p1482
(dp1483
S'labelings'
p1484
(dp1485
ssS'0005'
p1486
(dp1487
S'labelings'
p1488
(dp1489
ssS'0006'
p1490
(dp1491
S'labelings'
p1492
(dp1493
ssS'0019'
p1494
(dp1495
S'labelings'
p1496
(dp1497
ssS'0018'
p1498
(dp1499
S'labelings'
p1500
(dp1501
ssS'0021'
p1502
(dp1503
S'labelings'
p1504
(dp1505
ssS'0024'
p1506
(dp1507
S'labelings'
p1508
(dp1509
ssS'0010'
p1510
(dp1511
S'labelings'
p1512
(dp1513
ssS'0004'
p1514
(dp1515
S'labelings'
p1516
(dp1517
ssS'0023'
p1518
(dp1519
S'labelings'
p1520
(dp1521
ssS'0020'
p1522
(dp1523
S'labelings'
p1524
(dp1525
ssS'0007'
p1526
(dp1527
S'labelings'
p1528
(dp1529
ssS'0000'
p1530
(dp1531
S'labelings'
p1532
(dp1533
ssS'0001'
p1534
(dp1535
S'labelings'
p1536
(dp1537
ssS'0002'
p1538
(dp1539
S'labelings'
p1540
(dp1541
ssS'0003'
p1542
(dp1543
S'labelings'
p1544
(dp1545
ssS'0008'
p1546
(dp1547
S'labelings'
p1548
(dp1549
ssS'0009'
p1550
(dp1551
S'labelings'
p1552
(dp1553
ssS'0016'
p1554
(dp1555
S'labelings'
p1556
(dp1557
sssS'x20'
p1558
(dp1559
S'0017'
p1560
(dp1561
S'labelings'
p1562
(dp1563
ssS'0022'
p1564
(dp1565
S'labelings'
p1566
(dp1567
ssS'0015'
p1568
(dp1569
S'labelings'
p1570
(dp1571
ssS'0014'
p1572
(dp1573
S'labelings'
p1574
(dp1575
ssS'0013'
p1576
(dp1577
S'labelings'
p1578
(dp1579
ssS'0012'
p1580
(dp1581
S'labelings'
p1582
(dp1583
ssS'0011'
p1584
(dp1585
S'labelings'
p1586
(dp1587
ssS'0005'
p1588
(dp1589
S'labelings'
p1590
(dp1591
ssS'0006'
p1592
(dp1593
S'labelings'
p1594
(dp1595
ssS'0019'
p1596
(dp1597
S'labelings'
p1598
(dp1599
ssS'0018'
p1600
(dp1601
S'labelings'
p1602
(dp1603
ssS'0021'
p1604
(dp1605
S'labelings'
p1606
(dp1607
ssS'0024'
p1608
(dp1609
S'labelings'
p1610
(dp1611
ssS'0010'
p1612
(dp1613
S'labelings'
p1614
(dp1615
ssS'0004'
p1616
(dp1617
S'labelings'
p1618
(dp1619
ssS'0023'
p1620
(dp1621
S'labelings'
p1622
(dp1623
ssS'0020'
p1624
(dp1625
S'labelings'
p1626
(dp1627
ssS'0007'
p1628
(dp1629
S'labelings'
p1630
(dp1631
ssS'0000'
p1632
(dp1633
S'labelings'
p1634
(dp1635
ssS'0001'
p1636
(dp1637
S'labelings'
p1638
(dp1639
ssS'0002'
p1640
(dp1641
S'labelings'
p1642
(dp1643
ssS'0003'
p1644
(dp1645
S'labelings'
p1646
(dp1647
ssS'0008'
p1648
(dp1649
S'labelings'
p1650
(dp1651
ssS'0009'
p1652
(dp1653
S'labelings'
p1654
(dp1655
ssS'0016'
p1656
(dp1657
S'labelings'
p1658
(dp1659
sssS'x5'
p1660
(dp1661
S'0017'
p1662
(dp1663
S'RS141_x5_0017_mask.png'
p1664
NsS'labelings'
p1665
(dp1666
sS'RS141_x5_0017.tif'
p1667
NsS'redNissl_pipelineResults'
p1668
(dp1669
S'RS141_x5_0017_redNissl_fg.npy'
p1670
NsS'RS141_x5_0017_redNissl_cropMask.npy'
p1671
NsS'RS141_x5_0017_redNissl_texMap.tif'
p1672
NsS'RS141_x5_0017_redNissl_features.npy'
p1673
NsS'RS141_x5_0017_redNissl_texHist.npy'
p1674
NsS'RS141_x5_0017_redNissl_segmentation.npy'
p1675
NsS'RS141_x5_0017_redNissl_segmentation.tif'
p1676
NsS'RS141_x5_0017_redNissl_texMap.npy'
p1677
NsS'RS141_x5_0017_redNissl_dirHist.npy'
p1678
NsS'RS141_x5_0017_redNissl_bg.npy'
p1679
NsS'RS141_x5_0017_redNissl_neighbors.npy'
p1680
NsS'RS141_x5_0017_redNissl_cropImg.tif'
p1681
NsssS'0022'
p1682
(dp1683
S'RS141_x5_0022.tif'
p1684
NsS'labelings'
p1685
(dp1686
sS'RS141_x5_0022_mask.png'
p1687
NsS'redNissl_pipelineResults'
p1688
(dp1689
S'RS141_x5_0022_redNissl_segmentation.npy'
p1690
NsS'RS141_x5_0022_redNissl_features.npy'
p1691
NsS'RS141_x5_0022_redNissl_neighbors.npy'
p1692
NsS'RS141_x5_0022_redNissl_bg.npy'
p1693
NsS'RS141_x5_0022_redNissl_cropImg.tif'
p1694
NsS'RS141_x5_0022_redNissl_dirHist.npy'
p1695
NsS'RS141_x5_0022_redNissl_cropMask.npy'
p1696
NsS'RS141_x5_0022_redNissl_segmentation.tif'
p1697
NsS'RS141_x5_0022_redNissl_texMap.tif'
p1698
NsS'RS141_x5_0022_redNissl_texMap.npy'
p1699
NsS'RS141_x5_0022_redNissl_texHist.npy'
p1700
NsS'RS141_x5_0022_redNissl_fg.npy'
p1701
NsssS'0015'
p1702
(dp1703
S'labelings'
p1704
(dp1705
sS'redNissl_pipelineResults'
p1706
(dp1707
S'RS141_x5_0015_redNissl_dirHist.npy'
p1708
NsS'RS141_x5_0015_redNissl_features.npy'
p1709
NsS'RS141_x5_0015_redNissl_segmentation.tif'
p1710
NsS'RS141_x5_0015_redNissl_texHist.npy'
p1711
NsS'RS141_x5_0015_redNissl_bg.npy'
p1712
NsS'RS141_x5_0015_redNissl_texMap.npy'
p1713
NsS'RS141_x5_0015_redNissl_neighbors.npy'
p1714
NsS'RS141_x5_0015_redNissl_texMap.tif'
p1715
NsS'RS141_x5_0015_redNissl_fg.npy'
p1716
NsS'RS141_x5_0015_redNissl_cropMask.npy'
p1717
NsS'RS141_x5_0015_redNissl_cropImg.tif'
p1718
NsS'RS141_x5_0015_redNissl_segmentation.npy'
p1719
NssS'RS141_x5_0015.tif'
p1720
NsS'RS141_x5_0015_mask.png'
p1721
NssS'0014'
p1722
(dp1723
S'labelings'
p1724
(dp1725
sS'RS141_x5_0014_mask.png'
p1726
NsS'RS141_x5_0014.tif'
p1727
NsS'redNissl_pipelineResults'
p1728
(dp1729
S'RS141_x5_0014_redNissl_cropImg.tif'
p1730
NsS'RS141_x5_0014_redNissl_bg.npy'
p1731
NsS'RS141_x5_0014_redNissl_segmentation.npy'
p1732
NsS'RS141_x5_0014_redNissl_fg.npy'
p1733
NsS'RS141_x5_0014_redNissl_features.npy'
p1734
NsS'RS141_x5_0014_redNissl_cropMask.npy'
p1735
NsS'RS141_x5_0014_redNissl_texHist.npy'
p1736
NsS'RS141_x5_0014_redNissl_texMap.tif'
p1737
NsS'RS141_x5_0014_redNissl_neighbors.npy'
p1738
NsS'RS141_x5_0014_redNissl_dirHist.npy'
p1739
NsS'RS141_x5_0014_redNissl_texMap.npy'
p1740
NsS'RS141_x5_0014_redNissl_segmentation.tif'
p1741
NsssS'0013'
p1742
(dp1743
S'RS141_x5_0013.tif'
p1744
NsS'labelings'
p1745
(dp1746
sS'RS141_x5_0013_mask.png'
p1747
NsS'redNissl_pipelineResults'
p1748
(dp1749
S'RS141_x5_0013_redNissl_cropMask.npy'
p1750
NsS'RS141_x5_0013_redNissl_neighbors.npy'
p1751
NsS'RS141_x5_0013_redNissl_cropImg.tif'
p1752
NsS'RS141_x5_0013_redNissl_texMap.npy'
p1753
NsS'RS141_x5_0013_redNissl_texHist.npy'
p1754
NsS'RS141_x5_0013_redNissl_dirHist.npy'
p1755
NsS'RS141_x5_0013_redNissl_bg.npy'
p1756
NsS'RS141_x5_0013_redNissl_features.npy'
p1757
NsS'RS141_x5_0013_redNissl_texMap.tif'
p1758
NsS'RS141_x5_0013_redNissl_fg.npy'
p1759
NsS'RS141_x5_0013_redNissl_segmentation.tif'
p1760
NsS'RS141_x5_0013_redNissl_segmentation.npy'
p1761
NsssS'0012'
p1762
(dp1763
S'labelings'
p1764
(dp1765
sS'RS141_x5_0012.tif'
p1766
NsS'redNissl_pipelineResults'
p1767
(dp1768
S'RS141_x5_0012_redNissl_segmentation.npy'
p1769
NsS'RS141_x5_0012_redNissl_segmentation.tif'
p1770
NsS'RS141_x5_0012_redNissl_texMap.tif'
p1771
NsS'RS141_x5_0012_redNissl_dirHist.npy'
p1772
NsS'RS141_x5_0012_redNissl_features.npy'
p1773
NsS'RS141_x5_0012_redNissl_texHist.npy'
p1774
NsS'RS141_x5_0012_redNissl_bg.npy'
p1775
NsS'RS141_x5_0012_redNissl_cropImg.tif'
p1776
NsS'RS141_x5_0012_redNissl_texMap.npy'
p1777
NsS'RS141_x5_0012_redNissl_neighbors.npy'
p1778
NsS'RS141_x5_0012_redNissl_fg.npy'
p1779
NsS'RS141_x5_0012_redNissl_cropMask.npy'
p1780
NssS'RS141_x5_0012_mask.png'
p1781
NssS'0011'
p1782
(dp1783
S'labelings'
p1784
(dp1785
sS'redNissl_pipelineResults'
p1786
(dp1787
S'RS141_x5_0011_redNissl_cropImg.tif'
p1788
NsS'RS141_x5_0011_redNissl_dirHist.npy'
p1789
NsS'RS141_x5_0011_redNissl_segmentation.npy'
p1790
NsS'RS141_x5_0011_redNissl_cropMask.npy'
p1791
NsS'RS141_x5_0011_redNissl_bg.npy'
p1792
NsS'RS141_x5_0011_redNissl_features.npy'
p1793
NsS'RS141_x5_0011_redNissl_segmentation.tif'
p1794
NsS'RS141_x5_0011_redNissl_texMap.npy'
p1795
NsS'RS141_x5_0011_redNissl_texHist.npy'
p1796
NsS'RS141_x5_0011_redNissl_neighbors.npy'
p1797
NsS'RS141_x5_0011_redNissl_fg.npy'
p1798
NsS'RS141_x5_0011_redNissl_texMap.tif'
p1799
NssS'RS141_x5_0011_mask.png'
p1800
NsS'RS141_x5_0011.tif'
p1801
NssS'0010'
p1802
(dp1803
S'labelings'
p1804
(dp1805
sS'redNissl_pipelineResults'
p1806
(dp1807
S'RS141_x5_0010_redNissl_texMap.npy'
p1808
NsS'RS141_x5_0010_redNissl_texHist.npy'
p1809
NsS'RS141_x5_0010_redNissl_dirHist.npy'
p1810
NsS'RS141_x5_0010_redNissl_neighbors.npy'
p1811
NsS'RS141_x5_0010_redNissl_cropMask.npy'
p1812
NsS'RS141_x5_0010_redNissl_fg.npy'
p1813
NsS'RS141_x5_0010_redNissl_features.npy'
p1814
NsS'RS141_x5_0010_redNissl_bg.npy'
p1815
NsS'RS141_x5_0010_redNissl_segmentation.npy'
p1816
NsS'RS141_x5_0010_redNissl_segmentation.tif'
p1817
NsS'RS141_x5_0010_redNissl_texMap.tif'
p1818
NsS'RS141_x5_0010_redNissl_cropImg.tif'
p1819
NssS'RS141_x5_0010_mask.png'
p1820
NsS'RS141_x5_0010.tif'
p1821
NssS'0006'
p1822
(dp1823
S'labelings'
p1824
(dp1825
sS'redNissl_pipelineResults'
p1826
(dp1827
S'RS141_x5_0006_redNissl_features.npy'
p1828
NsS'RS141_x5_0006_redNissl_neighbors.npy'
p1829
NsS'RS141_x5_0006_redNissl_fg.npy'
p1830
NsS'RS141_x5_0006_redNissl_segmentation.tif'
p1831
NsS'RS141_x5_0006_redNissl_texMap.tif'
p1832
NsS'RS141_x5_0006_redNissl_cropImg.tif'
p1833
NsS'RS141_x5_0006_redNissl_texMap.npy'
p1834
NsS'RS141_x5_0006_redNissl_cropMask.npy'
p1835
NsS'RS141_x5_0006_redNissl_bg.npy'
p1836
NsS'RS141_x5_0006_redNissl_texHist.npy'
p1837
NsS'RS141_x5_0006_redNissl_dirHist.npy'
p1838
NsS'RS141_x5_0006_redNissl_segmentation.npy'
p1839
NssS'RS141_x5_0006_mask.png'
p1840
NsS'RS141_x5_0006.tif'
p1841
NssS'0019'
p1842
(dp1843
S'labelings'
p1844
(dp1845
sS'redNissl_pipelineResults'
p1846
(dp1847
S'RS141_x5_0019_redNissl_features.npy'
p1848
NsS'RS141_x5_0019_redNissl_neighbors.npy'
p1849
NsS'RS141_x5_0019_redNissl_fg.npy'
p1850
NsS'RS141_x5_0019_redNissl_segmentation.tif'
p1851
NsS'RS141_x5_0019_redNissl_texMap.tif'
p1852
NsS'RS141_x5_0019_redNissl_cropImg.tif'
p1853
NsS'RS141_x5_0019_redNissl_texMap.npy'
p1854
NsS'RS141_x5_0019_redNissl_cropMask.npy'
p1855
NsS'RS141_x5_0019_redNissl_bg.npy'
p1856
NsS'RS141_x5_0019_redNissl_texHist.npy'
p1857
NsS'RS141_x5_0019_redNissl_dirHist.npy'
p1858
NsS'RS141_x5_0019_redNissl_segmentation.npy'
p1859
NssS'RS141_x5_0019_mask.png'
p1860
NsS'RS141_x5_0019.tif'
p1861
NssS'0018'
p1862
(dp1863
S'labelings'
p1864
(dp1865
sS'redNissl_pipelineResults'
p1866
(dp1867
S'RS141_x5_0018_redNissl_texMap.tif'
p1868
NsS'RS141_x5_0018_redNissl_cropImg.tif'
p1869
NsS'RS141_x5_0018_redNissl_features.npy'
p1870
NsS'RS141_x5_0018_redNissl_neighbors.npy'
p1871
NsS'RS141_x5_0018_redNissl_segmentation.tif'
p1872
NsS'RS141_x5_0018_redNissl_cropMask.npy'
p1873
NsS'RS141_x5_0018_redNissl_texMap.npy'
p1874
NsS'RS141_x5_0018_redNissl_texHist.npy'
p1875
NsS'RS141_x5_0018_redNissl_fg.npy'
p1876
NsS'RS141_x5_0018_redNissl_dirHist.npy'
p1877
NsS'RS141_x5_0018_redNissl_bg.npy'
p1878
NsS'RS141_x5_0018_redNissl_segmentation.npy'
p1879
NssS'RS141_x5_0018_mask.png'
p1880
NsS'RS141_x5_0018.tif'
p1881
NssS'0021'
p1882
(dp1883
S'labelings'
p1884
(dp1885
sS'redNissl_pipelineResults'
p1886
(dp1887
S'RS141_x5_0021_redNissl_texMap.tif'
p1888
NsS'RS141_x5_0021_redNissl_cropImg.tif'
p1889
NsS'RS141_x5_0021_redNissl_features.npy'
p1890
NsS'RS141_x5_0021_redNissl_neighbors.npy'
p1891
NsS'RS141_x5_0021_redNissl_segmentation.tif'
p1892
NsS'RS141_x5_0021_redNissl_cropMask.npy'
p1893
NsS'RS141_x5_0021_redNissl_texMap.npy'
p1894
NsS'RS141_x5_0021_redNissl_texHist.npy'
p1895
NsS'RS141_x5_0021_redNissl_fg.npy'
p1896
NsS'RS141_x5_0021_redNissl_dirHist.npy'
p1897
NsS'RS141_x5_0021_redNissl_bg.npy'
p1898
NsS'RS141_x5_0021_redNissl_segmentation.npy'
p1899
NssS'RS141_x5_0021_mask.png'
p1900
NsS'RS141_x5_0021.tif'
p1901
NssS'0004'
p1902
(dp1903
S'RS141_x5_0004.tif'
p1904
NsS'labelings'
p1905
(dp1906
sS'RS141_x5_0004_mask.png'
p1907
NsS'redNissl_pipelineResults'
p1908
(dp1909
S'RS141_x5_0004_redNissl_segmentation.npy'
p1910
NsS'RS141_x5_0004_redNissl_features.npy'
p1911
NsS'RS141_x5_0004_redNissl_cropMask.npy'
p1912
NsS'RS141_x5_0004_redNissl_bg.npy'
p1913
NsS'RS141_x5_0004_redNissl_cropImg.tif'
p1914
NsS'RS141_x5_0004_redNissl_dirHist.npy'
p1915
NsS'RS141_x5_0004_redNissl_neighbors.npy'
p1916
NsS'RS141_x5_0004_redNissl_segmentation.tif'
p1917
NsS'RS141_x5_0004_redNissl_texMap.tif'
p1918
NsS'RS141_x5_0004_redNissl_texMap.npy'
p1919
NsS'RS141_x5_0004_redNissl_texHist.npy'
p1920
NsS'RS141_x5_0004_redNissl_fg.npy'
p1921
NsssS'0023'
p1922
(dp1923
S'labelings'
p1924
(dp1925
sS'RS141_x5_0023.tif'
p1926
NsS'redNissl_pipelineResults'
p1927
(dp1928
S'RS141_x5_0023_redNissl_cropMask.npy'
p1929
NsS'RS141_x5_0023_redNissl_segmentation.tif'
p1930
NsS'RS141_x5_0023_redNissl_dirHist.npy'
p1931
NsS'RS141_x5_0023_redNissl_features.npy'
p1932
NsS'RS141_x5_0023_redNissl_texHist.npy'
p1933
NsS'RS141_x5_0023_redNissl_segmentation.npy'
p1934
NsS'RS141_x5_0023_redNissl_texMap.npy'
p1935
NsS'RS141_x5_0023_redNissl_texMap.tif'
p1936
NsS'RS141_x5_0023_redNissl_bg.npy'
p1937
NsS'RS141_x5_0023_redNissl_cropImg.tif'
p1938
NsS'RS141_x5_0023_redNissl_neighbors.npy'
p1939
NsS'RS141_x5_0023_redNissl_fg.npy'
p1940
NssS'RS141_x5_0023_mask.png'
p1941
NssS'0020'
p1942
(dp1943
S'labelings'
p1944
(dp1945
sS'redNissl_pipelineResults'
p1946
(dp1947
S'RS141_x5_0020_redNissl_features.npy'
p1948
NsS'RS141_x5_0020_redNissl_neighbors.npy'
p1949
NsS'RS141_x5_0020_redNissl_fg.npy'
p1950
NsS'RS141_x5_0020_redNissl_segmentation.tif'
p1951
NsS'RS141_x5_0020_redNissl_texMap.tif'
p1952
NsS'RS141_x5_0020_redNissl_cropImg.tif'
p1953
NsS'RS141_x5_0020_redNissl_texMap.npy'
p1954
NsS'RS141_x5_0020_redNissl_texHist.npy'
p1955
NsS'RS141_x5_0020_redNissl_bg.npy'
p1956
NsS'RS141_x5_0020_redNissl_cropMask.npy'
p1957
NsS'RS141_x5_0020_redNissl_dirHist.npy'
p1958
NsS'RS141_x5_0020_redNissl_segmentation.npy'
p1959
NssS'RS141_x5_0020_mask.png'
p1960
NsS'RS141_x5_0020.tif'
p1961
NssS'0007'
p1962
(dp1963
S'labelings'
p1964
(dp1965
sS'redNissl_pipelineResults'
p1966
(dp1967
S'RS141_x5_0007_redNissl_texMap.tif'
p1968
NsS'RS141_x5_0007_redNissl_cropImg.tif'
p1969
NsS'RS141_x5_0007_redNissl_features.npy'
p1970
NsS'RS141_x5_0007_redNissl_neighbors.npy'
p1971
NsS'RS141_x5_0007_redNissl_segmentation.tif'
p1972
NsS'RS141_x5_0007_redNissl_cropMask.npy'
p1973
NsS'RS141_x5_0007_redNissl_texMap.npy'
p1974
NsS'RS141_x5_0007_redNissl_texHist.npy'
p1975
NsS'RS141_x5_0007_redNissl_fg.npy'
p1976
NsS'RS141_x5_0007_redNissl_dirHist.npy'
p1977
NsS'RS141_x5_0007_redNissl_bg.npy'
p1978
NsS'RS141_x5_0007_redNissl_segmentation.npy'
p1979
NssS'RS141_x5_0007_mask.png'
p1980
NsS'RS141_x5_0007.tif'
p1981
NssS'0000'
p1982
(dp1983
S'RS141_x5_0000_mask.png'
p1984
NsS'labelings'
p1985
(dp1986
sS'RS141_x5_0000.tif'
p1987
NsS'redNissl_pipelineResults'
p1988
(dp1989
S'RS141_x5_0000_redNissl_texHist.npy'
p1990
NsS'RS141_x5_0000_redNissl_centroids.npy'
p1991
NsS'RS141_x5_0000_redNissl_cropImg.tif'
p1992
NsS'RS141_x5_0000_redNissl_texMap.npy'
p1993
NsS'RS141_x5_0000_redNissl_fg.npy'
p1994
NsS'RS141_x5_0000_redNissl_dirHist.npy'
p1995
NsS'RS141_x5_0000_redNissl_neighbors.npy'
p1996
NsS'RS141_x5_0000_redNissl_texMap.tif'
p1997
NsS'RS141_x5_0000_redNissl_bg.npy'
p1998
NsS'RS141_x5_0000_redNissl_segmentation.npy'
p1999
NsS'RS141_x5_0000_redNissl_cropMask.npy'
p2000
NsS'RS141_x5_0000_redNissl_segmentation.tif'
p2001
NsS'RS141_x5_0000_redNissl_features.npy'
p2002
NsssS'0001'
p2003
(dp2004
S'labelings'
p2005
(dp2006
S'RS141_x5_0001_models.pkl'
p2007
NssS'redNissl_pipelineResults'
p2008
(dp2009
S'RS141_x5_0001_redNissl_features.npy'
p2010
NsS'RS141_x5_0001_redNissl_cropMask.npy'
p2011
NsS'RS141_x5_0001_redNissl_texMap.npy'
p2012
NsS'RS141_x5_0001_redNissl_texMap.tif'
p2013
NsS'RS141_x5_0001_redNissl_texHist.npy'
p2014
NsS'RS141_x5_0001_redNissl_bg.npy'
p2015
NsS'RS141_x5_0001_redNissl_neighbors.npy'
p2016
NsS'RS141_x5_0001_redNissl_dirHist.npy'
p2017
NsS'RS141_x5_0001_redNissl_cropImg.tif'
p2018
NsS'RS141_x5_0001_redNissl_fg.npy'
p2019
NsS'RS141_x5_0001_redNissl_segmentation.npy'
p2020
NsS'RS141_x5_0001_redNissl_segmentation.tif'
p2021
NssS'RS141_x5_0001_mask.png'
p2022
NsS'RS141_x5_0001.tif'
p2023
NssS'0002'
p2024
(dp2025
S'labelings'
p2026
(dp2027
sS'redNissl_pipelineResults'
p2028
(dp2029
S'RS141_x5_0002_redNissl_segmentation.tif'
p2030
NsS'RS141_x5_0002_redNissl_cropMask.npy'
p2031
NsS'RS141_x5_0002_redNissl_cropImg.tif'
p2032
NsS'RS141_x5_0002_redNissl_texMap.npy'
p2033
NsS'RS141_x5_0002_redNissl_texHist.npy'
p2034
NsS'RS141_x5_0002_redNissl_segmentation.npy'
p2035
NsS'RS141_x5_0002_redNissl_bg.npy'
p2036
NsS'RS141_x5_0002_redNissl_neighbors.npy'
p2037
NsS'RS141_x5_0002_redNissl_dirHist.npy'
p2038
NsS'RS141_x5_0002_redNissl_texMap.tif'
p2039
NsS'RS141_x5_0002_redNissl_features.npy'
p2040
NsS'RS141_x5_0002_redNissl_fg.npy'
p2041
NssS'RS141_x5_0002.tif'
p2042
NsS'RS141_x5_0002_mask.png'
p2043
NssS'0003'
p2044
(dp2045
S'labelings'
p2046
(dp2047
sS'RS141_x5_0003_mask.png'
p2048
NsS'RS141_x5_0003.tif'
p2049
NsS'redNissl_pipelineResults'
p2050
(dp2051
S'RS141_x5_0003_redNissl_neighbors.npy'
p2052
NsS'RS141_x5_0003_redNissl_fg.npy'
p2053
NsS'RS141_x5_0003_redNissl_features.npy'
p2054
NsS'RS141_x5_0003_redNissl_cropImg.tif'
p2055
NsS'RS141_x5_0003_redNissl_segmentation.tif'
p2056
NsS'RS141_x5_0003_redNissl_texHist.npy'
p2057
NsS'RS141_x5_0003_redNissl_bg.npy'
p2058
NsS'RS141_x5_0003_redNissl_segmentation.npy'
p2059
NsS'RS141_x5_0003_redNissl_texMap.npy'
p2060
NsS'RS141_x5_0003_redNissl_texMap.tif'
p2061
NsS'RS141_x5_0003_redNissl_dirHist.npy'
p2062
NsS'RS141_x5_0003_redNissl_cropMask.npy'
p2063
NsssS'0008'
p2064
(dp2065
S'RS141_x5_0008_mask.png'
p2066
NsS'labelings'
p2067
(dp2068
sS'RS141_x5_0008.tif'
p2069
NsS'redNissl_pipelineResults'
p2070
(dp2071
S'RS141_x5_0008_redNissl_fg.npy'
p2072
NsS'RS141_x5_0008_redNissl_cropMask.npy'
p2073
NsS'RS141_x5_0008_redNissl_texMap.tif'
p2074
NsS'RS141_x5_0008_redNissl_features.npy'
p2075
NsS'RS141_x5_0008_redNissl_texHist.npy'
p2076
NsS'RS141_x5_0008_redNissl_segmentation.npy'
p2077
NsS'RS141_x5_0008_redNissl_dirHist.npy'
p2078
NsS'RS141_x5_0008_redNissl_texMap.npy'
p2079
NsS'RS141_x5_0008_redNissl_segmentation.tif'
p2080
NsS'RS141_x5_0008_redNissl_bg.npy'
p2081
NsS'RS141_x5_0008_redNissl_neighbors.npy'
p2082
NsS'RS141_x5_0008_redNissl_cropImg.tif'
p2083
NsssS'0009'
p2084
(dp2085
S'labelings'
p2086
(dp2087
sS'redNissl_pipelineResults'
p2088
(dp2089
S'RS141_x5_0009_redNissl_texMap.tif'
p2090
NsS'RS141_x5_0009_redNissl_fg.npy'
p2091
NsS'RS141_x5_0009_redNissl_bg.npy'
p2092
NsS'RS141_x5_0009_redNissl_neighbors.npy'
p2093
NsS'RS141_x5_0009_redNissl_features.npy'
p2094
NsS'RS141_x5_0009_redNissl_segmentation.tif'
p2095
NsS'RS141_x5_0009_redNissl_cropImg.tif'
p2096
NsS'RS141_x5_0009_redNissl_texMap.npy'
p2097
NsS'RS141_x5_0009_redNissl_texHist.npy'
p2098
NsS'RS141_x5_0009_redNissl_segmentation.npy'
p2099
NsS'RS141_x5_0009_redNissl_dirHist.npy'
p2100
NsS'RS141_x5_0009_redNissl_cropMask.npy'
p2101
NssS'RS141_x5_0009_mask.png'
p2102
NsS'RS141_x5_0009.tif'
p2103
NssS'0005'
p2104
(dp2105
S'labelings'
p2106
(dp2107
sS'RS141_x5_0005.tif'
p2108
NsS'redNissl_pipelineResults'
p2109
(dp2110
S'RS141_x5_0005_redNissl_cropMask.npy'
p2111
NsS'RS141_x5_0005_redNissl_segmentation.tif'
p2112
NsS'RS141_x5_0005_redNissl_dirHist.npy'
p2113
NsS'RS141_x5_0005_redNissl_features.npy'
p2114
NsS'RS141_x5_0005_redNissl_texHist.npy'
p2115
NsS'RS141_x5_0005_redNissl_segmentation.npy'
p2116
NsS'RS141_x5_0005_redNissl_texMap.npy'
p2117
NsS'RS141_x5_0005_redNissl_texMap.tif'
p2118
NsS'RS141_x5_0005_redNissl_bg.npy'
p2119
NsS'RS141_x5_0005_redNissl_cropImg.tif'
p2120
NsS'RS141_x5_0005_redNissl_neighbors.npy'
p2121
NsS'RS141_x5_0005_redNissl_fg.npy'
p2122
NssS'RS141_x5_0005_mask.png'
p2123
NssS'0016'
p2124
(dp2125
S'labelings'
p2126
(dp2127
sS'redNissl_pipelineResults'
p2128
(dp2129
S'RS141_x5_0016_redNissl_texMap.tif'
p2130
NsS'RS141_x5_0016_redNissl_fg.npy'
p2131
NsS'RS141_x5_0016_redNissl_bg.npy'
p2132
NsS'RS141_x5_0016_redNissl_neighbors.npy'
p2133
NsS'RS141_x5_0016_redNissl_features.npy'
p2134
NsS'RS141_x5_0016_redNissl_segmentation.tif'
p2135
NsS'RS141_x5_0016_redNissl_cropImg.tif'
p2136
NsS'RS141_x5_0016_redNissl_texMap.npy'
p2137
NsS'RS141_x5_0016_redNissl_texHist.npy'
p2138
NsS'RS141_x5_0016_redNissl_segmentation.npy'
p2139
NsS'RS141_x5_0016_redNissl_dirHist.npy'
p2140
NsS'RS141_x5_0016_redNissl_cropMask.npy'
p2141
NssS'RS141_x5_0016_mask.png'
p2142
NsS'RS141_x5_0016.tif'
p2143
NssssS'RS140'
p2144
(dp2145
S'x1.25'
p2146
(dp2147
S'0017'
p2148
(dp2149
S'labelings'
p2150
(dp2151
ssS'0022'
p2152
(dp2153
S'labelings'
p2154
(dp2155
ssS'0015'
p2156
(dp2157
S'labelings'
p2158
(dp2159
ssS'0014'
p2160
(dp2161
S'labelings'
p2162
(dp2163
ssS'0013'
p2164
(dp2165
S'labelings'
p2166
(dp2167
ssS'0012'
p2168
(dp2169
S'labelings'
p2170
(dp2171
ssS'0011'
p2172
(dp2173
S'labelings'
p2174
(dp2175
ssS'0005'
p2176
(dp2177
S'labelings'
p2178
(dp2179
ssS'0035'
p2180
(dp2181
S'labelings'
p2182
(dp2183
ssS'0034'
p2184
(dp2185
S'labelings'
p2186
(dp2187
ssS'0036'
p2188
(dp2189
S'labelings'
p2190
(dp2191
ssS'0031'
p2192
(dp2193
S'labelings'
p2194
(dp2195
ssS'0006'
p2196
(dp2197
S'labelings'
p2198
(dp2199
ssS'0033'
p2200
(dp2201
S'labelings'
p2202
(dp2203
ssS'0032'
p2204
(dp2205
S'labelings'
p2206
(dp2207
ssS'0021'
p2208
(dp2209
S'labelings'
p2210
(dp2211
ssS'0010'
p2212
(dp2213
S'labelings'
p2214
(dp2215
ssS'0026'
p2216
(dp2217
S'labelings'
p2218
(dp2219
ssS'0001'
p2220
(dp2221
S'labelings'
p2222
(dp2223
ssS'0024'
p2224
(dp2225
S'labelings'
p2226
(dp2227
ssS'0003'
p2228
(dp2229
S'labelings'
p2230
(dp2231
ssS'0004'
p2232
(dp2233
S'labelings'
p2234
(dp2235
ssS'0023'
p2236
(dp2237
S'labelings'
p2238
(dp2239
ssS'0020'
p2240
(dp2241
S'labelings'
p2242
(dp2243
ssS'0007'
p2244
(dp2245
S'labelings'
p2246
(dp2247
ssS'0000'
p2248
(dp2249
S'labelings'
p2250
(dp2251
ssS'0027'
p2252
(dp2253
S'labelings'
p2254
(dp2255
ssS'0002'
p2256
(dp2257
S'labelings'
p2258
(dp2259
ssS'0025'
p2260
(dp2261
S'labelings'
p2262
(dp2263
ssS'0028'
p2264
(dp2265
S'labelings'
p2266
(dp2267
ssS'0029'
p2268
(dp2269
S'labelings'
p2270
(dp2271
ssS'0008'
p2272
(dp2273
S'labelings'
p2274
(dp2275
ssS'0009'
p2276
(dp2277
S'labelings'
p2278
(dp2279
ssS'0030'
p2280
(dp2281
S'labelings'
p2282
(dp2283
ssS'0019'
p2284
(dp2285
S'labelings'
p2286
(dp2287
ssS'0018'
p2288
(dp2289
S'labelings'
p2290
(dp2291
ssS'0016'
p2292
(dp2293
S'labelings'
p2294
(dp2295
sssS'x20'
p2296
(dp2297
S'0017'
p2298
(dp2299
S'labelings'
p2300
(dp2301
ssS'0022'
p2302
(dp2303
S'labelings'
p2304
(dp2305
ssS'0015'
p2306
(dp2307
S'labelings'
p2308
(dp2309
ssS'0014'
p2310
(dp2311
S'labelings'
p2312
(dp2313
ssS'0013'
p2314
(dp2315
S'labelings'
p2316
(dp2317
ssS'0012'
p2318
(dp2319
S'labelings'
p2320
(dp2321
ssS'0011'
p2322
(dp2323
S'labelings'
p2324
(dp2325
ssS'0005'
p2326
(dp2327
S'labelings'
p2328
(dp2329
ssS'0035'
p2330
(dp2331
S'labelings'
p2332
(dp2333
ssS'0034'
p2334
(dp2335
S'labelings'
p2336
(dp2337
ssS'0036'
p2338
(dp2339
S'labelings'
p2340
(dp2341
ssS'0031'
p2342
(dp2343
S'labelings'
p2344
(dp2345
ssS'0006'
p2346
(dp2347
S'labelings'
p2348
(dp2349
ssS'0033'
p2350
(dp2351
S'labelings'
p2352
(dp2353
ssS'0032'
p2354
(dp2355
S'labelings'
p2356
(dp2357
ssS'0021'
p2358
(dp2359
S'labelings'
p2360
(dp2361
ssS'0010'
p2362
(dp2363
S'labelings'
p2364
(dp2365
ssS'0026'
p2366
(dp2367
S'labelings'
p2368
(dp2369
ssS'0001'
p2370
(dp2371
S'labelings'
p2372
(dp2373
ssS'0024'
p2374
(dp2375
S'labelings'
p2376
(dp2377
ssS'0003'
p2378
(dp2379
S'labelings'
p2380
(dp2381
ssS'0004'
p2382
(dp2383
S'labelings'
p2384
(dp2385
ssS'0023'
p2386
(dp2387
S'labelings'
p2388
(dp2389
ssS'0020'
p2390
(dp2391
S'labelings'
p2392
(dp2393
ssS'0007'
p2394
(dp2395
S'labelings'
p2396
(dp2397
ssS'0000'
p2398
(dp2399
S'labelings'
p2400
(dp2401
ssS'0027'
p2402
(dp2403
S'labelings'
p2404
(dp2405
ssS'0002'
p2406
(dp2407
S'labelings'
p2408
(dp2409
ssS'0025'
p2410
(dp2411
S'labelings'
p2412
(dp2413
ssS'0028'
p2414
(dp2415
S'labelings'
p2416
(dp2417
ssS'0029'
p2418
(dp2419
S'labelings'
p2420
(dp2421
ssS'0008'
p2422
(dp2423
S'labelings'
p2424
(dp2425
ssS'0009'
p2426
(dp2427
S'labelings'
p2428
(dp2429
ssS'0030'
p2430
(dp2431
S'labelings'
p2432
(dp2433
ssS'0019'
p2434
(dp2435
S'labelings'
p2436
(dp2437
ssS'0018'
p2438
(dp2439
S'labelings'
p2440
(dp2441
ssS'0016'
p2442
(dp2443
S'labelings'
p2444
(dp2445
sssS'x5'
p2446
(dp2447
S'0017'
p2448
(dp2449
S'labelings'
p2450
(dp2451
ssS'0022'
p2452
(dp2453
S'labelings'
p2454
(dp2455
ssS'0015'
p2456
(dp2457
S'labelings'
p2458
(dp2459
ssS'0014'
p2460
(dp2461
S'labelings'
p2462
(dp2463
ssS'0013'
p2464
(dp2465
S'labelings'
p2466
(dp2467
ssS'0012'
p2468
(dp2469
S'labelings'
p2470
(dp2471
ssS'0011'
p2472
(dp2473
S'labelings'
p2474
(dp2475
ssS'0005'
p2476
(dp2477
S'labelings'
p2478
(dp2479
ssS'0035'
p2480
(dp2481
S'labelings'
p2482
(dp2483
ssS'0034'
p2484
(dp2485
S'labelings'
p2486
(dp2487
ssS'0036'
p2488
(dp2489
S'labelings'
p2490
(dp2491
ssS'0031'
p2492
(dp2493
S'labelings'
p2494
(dp2495
ssS'0006'
p2496
(dp2497
S'labelings'
p2498
(dp2499
ssS'0033'
p2500
(dp2501
S'labelings'
p2502
(dp2503
ssS'0032'
p2504
(dp2505
S'labelings'
p2506
(dp2507
ssS'0021'
p2508
(dp2509
S'labelings'
p2510
(dp2511
ssS'0010'
p2512
(dp2513
S'labelings'
p2514
(dp2515
ssS'0026'
p2516
(dp2517
S'labelings'
p2518
(dp2519
ssS'0001'
p2520
(dp2521
S'labelings'
p2522
(dp2523
ssS'0024'
p2524
(dp2525
S'labelings'
p2526
(dp2527
ssS'0003'
p2528
(dp2529
S'labelings'
p2530
(dp2531
ssS'0004'
p2532
(dp2533
S'labelings'
p2534
(dp2535
ssS'0023'
p2536
(dp2537
S'labelings'
p2538
(dp2539
ssS'0020'
p2540
(dp2541
S'labelings'
p2542
(dp2543
ssS'0007'
p2544
(dp2545
S'labelings'
p2546
(dp2547
ssS'0000'
p2548
(dp2549
S'labelings'
p2550
(dp2551
ssS'0027'
p2552
(dp2553
S'labelings'
p2554
(dp2555
ssS'0002'
p2556
(dp2557
S'labelings'
p2558
(dp2559
ssS'0025'
p2560
(dp2561
S'labelings'
p2562
(dp2563
ssS'0028'
p2564
(dp2565
S'labelings'
p2566
(dp2567
ssS'0029'
p2568
(dp2569
S'labelings'
p2570
(dp2571
ssS'0008'
p2572
(dp2573
S'labelings'
p2574
(dp2575
ssS'0009'
p2576
(dp2577
S'labelings'
p2578
(dp2579
ssS'0030'
p2580
(dp2581
S'labelings'
p2582
(dp2583
ssS'0019'
p2584
(dp2585
S'labelings'
p2586
(dp2587
ssS'0018'
p2588
(dp2589
S'labelings'
p2590
(dp2591
ssS'0016'
p2592
(dp2593
S'labelings'
p2594
(dp2595
sssss.