(dp1
S'DavidData'
p2
(dp3
S'RS139'
p4
(dp5
S'x1.25'
p6
(dp7
S'0017'
p8
(dp9
sS'0022'
p10
(dp11
sS'0015'
p12
(dp13
sS'0014'
p14
(dp15
sS'0013'
p16
(dp17
sS'0012'
p18
(dp19
sS'0011'
p20
(dp21
sS'0005'
p22
(dp23
sS'0031'
p24
(dp25
sS'0006'
p26
(dp27
sS'0033'
p28
(dp29
sS'0032'
p30
(dp31
sS'0021'
p32
(dp33
sS'0010'
p34
(dp35
sS'0026'
p36
(dp37
sS'0001'
p38
(dp39
sS'0024'
p40
(dp41
sS'0003'
p42
(dp43
sS'0004'
p44
(dp45
sS'0023'
p46
(dp47
sS'0020'
p48
(dp49
sS'0007'
p50
(dp51
sS'0000'
p52
(dp53
sS'0027'
p54
(dp55
sS'0002'
p56
(dp57
sS'0025'
p58
(dp59
sS'0028'
p60
(dp61
sS'0029'
p62
(dp63
sS'0008'
p64
(dp65
sS'0009'
p66
(dp67
sS'0030'
p68
(dp69
sS'0019'
p70
(dp71
sS'0018'
p72
(dp73
sS'0016'
p74
(dp75
ssS'x20'
p76
(dp77
S'0017'
p78
(dp79
sS'0022'
p80
(dp81
sS'0015'
p82
(dp83
sS'0014'
p84
(dp85
sS'0013'
p86
(dp87
sS'0012'
p88
(dp89
sS'0011'
p90
(dp91
sS'0005'
p92
(dp93
sS'0006'
p94
(dp95
sS'0019'
p96
(dp97
sS'0018'
p98
(dp99
sS'0021'
p100
(dp101
sS'0010'
p102
(dp103
sS'0026'
p104
(dp105
sS'0001'
p106
(dp107
sS'0024'
p108
(dp109
sS'0003'
p110
(dp111
sS'0004'
p112
(dp113
sS'0023'
p114
(dp115
sS'0020'
p116
(dp117
sS'0007'
p118
(dp119
sS'0000'
p120
(dp121
sS'0027'
p122
(dp123
sS'0002'
p124
(dp125
sS'0025'
p126
(dp127
sS'0028'
p128
(dp129
sS'0008'
p130
(dp131
sS'0009'
p132
(dp133
sS'0016'
p134
(dp135
ssS'x5'
p136
(dp137
S'0017'
p138
(dp139
sS'0022'
p140
(dp141
sS'0015'
p142
(dp143
sS'0014'
p144
(dp145
sS'0013'
p146
(dp147
sS'0012'
p148
(dp149
sS'0011'
p150
(dp151
sS'0005'
p152
(dp153
sS'0031'
p154
(dp155
sS'0006'
p156
(dp157
sS'0033'
p158
(dp159
sS'0032'
p160
(dp161
sS'0021'
p162
(dp163
sS'0010'
p164
(dp165
sS'0026'
p166
(dp167
sS'0001'
p168
(dp169
sS'0024'
p170
(dp171
sS'0003'
p172
(dp173
sS'0004'
p174
(dp175
sS'0023'
p176
(dp177
sS'0020'
p178
(dp179
sS'0007'
p180
(dp181
sS'0000'
p182
(dp183
sS'0027'
p184
(dp185
sS'0002'
p186
(dp187
sS'0025'
p188
(dp189
sS'0028'
p190
(dp191
sS'0029'
p192
(dp193
sS'0008'
p194
(dp195
sS'0009'
p196
(dp197
sS'0030'
p198
(dp199
sS'0019'
p200
(dp201
sS'0018'
p202
(dp203
sS'0016'
p204
(dp205
sssS'RI6'
p206
(dp207
S'x1.25'
p208
(dp209
S'0017'
p210
(dp211
sS'0004'
p212
(dp213
sS'0015'
p214
(dp215
sS'0014'
p216
(dp217
sS'0013'
p218
(dp219
sS'0012'
p220
(dp221
sS'0011'
p222
(dp223
sS'0005'
p224
(dp225
sS'0035'
p226
(dp227
sS'0034'
p228
(dp229
sS'0037'
p230
(dp231
sS'0026'
p232
(dp233
sS'0031'
p234
(dp235
sS'0006'
p236
(dp237
sS'0033'
p238
(dp239
sS'0032'
p240
(dp241
sS'0044'
p242
(dp243
sS'0021'
p244
(dp245
sS'0010'
p246
(dp247
sS'0039'
p248
(dp249
sS'0029'
p250
(dp251
sS'0038'
p252
(dp253
sS'0024'
p254
(dp255
sS'0003'
p256
(dp257
sS'0036'
p258
(dp259
sS'0047'
p260
(dp261
sS'0028'
p262
(dp263
sS'0048'
p264
(dp265
sS'0023'
p266
(dp267
sS'0020'
p268
(dp269
sS'0007'
p270
(dp271
sS'0000'
p272
(dp273
sS'0027'
p274
(dp275
sS'0002'
p276
(dp277
sS'0025'
p278
(dp279
sS'0040'
p280
(dp281
sS'0041'
p282
(dp283
sS'0042'
p284
(dp285
sS'0043'
p286
(dp287
sS'0008'
p288
(dp289
sS'0009'
p290
(dp291
sS'0046'
p292
(dp293
sS'0030'
p294
(dp295
sS'0022'
p296
(dp297
sS'0019'
p298
(dp299
sS'0018'
p300
(dp301
sS'0001'
p302
(dp303
sS'0016'
p304
(dp305
sS'0045'
p306
(dp307
ssS'x5'
p308
(dp309
S'0017'
p310
(dp311
sS'0004'
p312
(dp313
sS'0015'
p314
(dp315
sS'0014'
p316
(dp317
sS'0013'
p318
(dp319
sS'0012'
p320
(dp321
sS'0011'
p322
(dp323
sS'0005'
p324
(dp325
sS'0035'
p326
(dp327
sS'0034'
p328
(dp329
sS'0037'
p330
(dp331
sS'0026'
p332
(dp333
sS'0031'
p334
(dp335
sS'0006'
p336
(dp337
sS'0033'
p338
(dp339
sS'0032'
p340
(dp341
sS'0044'
p342
(dp343
sS'0021'
p344
(dp345
sS'0010'
p346
(dp347
sS'0039'
p348
(dp349
sS'0029'
p350
(dp351
sS'0038'
p352
(dp353
sS'0024'
p354
(dp355
sS'0003'
p356
(dp357
sS'0036'
p358
(dp359
sS'0047'
p360
(dp361
sS'0028'
p362
(dp363
sS'0048'
p364
(dp365
sS'0023'
p366
(dp367
sS'0020'
p368
(dp369
sS'0007'
p370
(dp371
sS'0000'
p372
(dp373
sS'0027'
p374
(dp375
sS'0002'
p376
(dp377
sS'0025'
p378
(dp379
sS'0040'
p380
(dp381
sS'0041'
p382
(dp383
sS'0042'
p384
(dp385
sS'0043'
p386
(dp387
sS'0008'
p388
(dp389
sS'0009'
p390
(dp391
sS'0046'
p392
(dp393
sS'0030'
p394
(dp395
sS'0022'
p396
(dp397
sS'0019'
p398
(dp399
sS'0018'
p400
(dp401
sS'0001'
p402
(dp403
sS'0016'
p404
(dp405
sS'0045'
p406
(dp407
sssS'RS58'
p408
(dp409
S'x1.25'
p410
(dp411
S'0017'
p412
(dp413
sS'0022'
p414
(dp415
sS'0015'
p416
(dp417
sS'0014'
p418
(dp419
sS'0013'
p420
(dp421
sS'0012'
p422
(dp423
sS'0011'
p424
(dp425
sS'0005'
p426
(dp427
sS'0006'
p428
(dp429
sS'0019'
p430
(dp431
sS'0018'
p432
(dp433
sS'0021'
p434
(dp435
sS'0010'
p436
(dp437
sS'0026'
p438
(dp439
sS'0001'
p440
(dp441
sS'0024'
p442
(dp443
sS'0003'
p444
(dp445
sS'0004'
p446
(dp447
sS'0023'
p448
(dp449
sS'0020'
p450
(dp451
sS'0007'
p452
(dp453
sS'0000'
p454
(dp455
sS'0027'
p456
(dp457
sS'0002'
p458
(dp459
sS'0025'
p460
(dp461
sS'0008'
p462
(dp463
sS'0009'
p464
(dp465
sS'0016'
p466
(dp467
ssS'x20'
p468
(dp469
S'0017'
p470
(dp471
sS'0022'
p472
(dp473
sS'0015'
p474
(dp475
sS'0014'
p476
(dp477
sS'0013'
p478
(dp479
sS'0012'
p480
(dp481
sS'0011'
p482
(dp483
sS'0005'
p484
(dp485
sS'0006'
p486
(dp487
sS'0019'
p488
(dp489
sS'0018'
p490
(dp491
sS'0021'
p492
(dp493
sS'0010'
p494
(dp495
sS'0026'
p496
(dp497
sS'0001'
p498
(dp499
sS'0024'
p500
(dp501
sS'0003'
p502
(dp503
sS'0004'
p504
(dp505
sS'0023'
p506
(dp507
sS'0020'
p508
(dp509
sS'0007'
p510
(dp511
sS'0000'
p512
(dp513
sS'0027'
p514
(dp515
sS'0002'
p516
(dp517
sS'0025'
p518
(dp519
sS'0008'
p520
(dp521
sS'0009'
p522
(dp523
sS'0016'
p524
(dp525
ssS'x5'
p526
(dp527
S'0017'
p528
(dp529
sS'0022'
p530
(dp531
sS'0015'
p532
(dp533
sS'0014'
p534
(dp535
sS'0013'
p536
(dp537
sS'0012'
p538
(dp539
sS'0011'
p540
(dp541
sS'0005'
p542
(dp543
sS'0006'
p544
(dp545
sS'0019'
p546
(dp547
sS'0018'
p548
(dp549
sS'0021'
p550
(dp551
sS'0010'
p552
(dp553
sS'0026'
p554
(dp555
sS'0001'
p556
(dp557
sS'0024'
p558
(dp559
sS'0003'
p560
(dp561
sS'0004'
p562
(dp563
sS'0023'
p564
(dp565
sS'0020'
p566
(dp567
sS'0007'
p568
(dp569
sS'0000'
p570
(dp571
sS'0027'
p572
(dp573
sS'0002'
p574
(dp575
sS'0025'
p576
(dp577
sS'0008'
p578
(dp579
sS'0009'
p580
(dp581
sS'0016'
p582
(dp583
sssS'RS76'
p584
(dp585
S'x5'
p586
(dp587
S'0017'
p588
(dp589
sS'0022'
p590
(dp591
sS'0015'
p592
(dp593
sS'0014'
p594
(dp595
sS'0013'
p596
(dp597
sS'0012'
p598
(dp599
sS'0011'
p600
(dp601
sS'0005'
p602
(dp603
sS'0035'
p604
(dp605
sS'0034'
p606
(dp607
sS'0031'
p608
(dp609
sS'0006'
p610
(dp611
sS'0033'
p612
(dp613
sS'0032'
p614
(dp615
sS'0021'
p616
(dp617
sS'0010'
p618
(dp619
sS'0026'
p620
(dp621
sS'0001'
p622
(dp623
sS'0024'
p624
(dp625
sS'0003'
p626
(dp627
sS'0004'
p628
(dp629
sS'0023'
p630
(dp631
sS'0020'
p632
(dp633
sS'0007'
p634
(dp635
sS'0000'
p636
(dp637
sS'0027'
p638
(dp639
sS'0002'
p640
(dp641
sS'0025'
p642
(dp643
sS'0028'
p644
(dp645
sS'0029'
p646
(dp647
sS'0008'
p648
(dp649
sS'0009'
p650
(dp651
sS'0030'
p652
(dp653
sS'0019'
p654
(dp655
sS'0018'
p656
(dp657
sS'0016'
p658
(dp659
sssS'RS155'
p660
(dp661
S'x5'
p662
(dp663
S'0017'
p664
(dp665
sS'0022'
p666
(dp667
sS'0015'
p668
(dp669
sS'0014'
p670
(dp671
sS'0013'
p672
(dp673
sS'0012'
p674
(dp675
sS'0011'
p676
(dp677
sS'0005'
p678
(dp679
sS'0035'
p680
(dp681
sS'0034'
p682
(dp683
sS'0037'
p684
(dp685
sS'0036'
p686
(dp687
sS'0031'
p688
(dp689
sS'0006'
p690
(dp691
sS'0033'
p692
(dp693
sS'0032'
p694
(dp695
sS'0021'
p696
(dp697
sS'0010'
p698
(dp699
sS'0026'
p700
(dp701
sS'0038'
p702
(dp703
sS'0024'
p704
(dp705
sS'0003'
p706
(dp707
sS'0004'
p708
(dp709
sS'0023'
p710
(dp711
sS'0020'
p712
(dp713
sS'0007'
p714
(dp715
sS'0000'
p716
(dp717
sS'0027'
p718
(dp719
sS'0002'
p720
(dp721
sS'0025'
p722
(dp723
sS'0028'
p724
(dp725
sS'0029'
p726
(dp727
sS'0008'
p728
(dp729
sS'0009'
p730
(dp731
sS'0030'
p732
(dp733
sS'0019'
p734
(dp735
sS'0018'
p736
(dp737
sS'0001'
p738
(dp739
sS'0039'
p740
(dp741
sS'0016'
p742
(dp743
sssS'RS141'
p744
(dp745
S'x1.25'
p746
(dp747
S'0017'
p748
(dp749
sS'0022'
p750
(dp751
sS'0015'
p752
(dp753
sS'0014'
p754
(dp755
sS'0013'
p756
(dp757
sS'0012'
p758
(dp759
sS'0011'
p760
(dp761
sS'0005'
p762
(dp763
sS'0006'
p764
(dp765
sS'0019'
p766
(dp767
sS'0018'
p768
(dp769
sS'0021'
p770
(dp771
sS'0024'
p772
(dp773
sS'0010'
p774
(dp775
sS'0004'
p776
(dp777
sS'0023'
p778
(dp779
sS'0020'
p780
(dp781
sS'0007'
p782
(dp783
sS'0000'
p784
(dp785
sS'0001'
p786
(dp787
sS'0002'
p788
(dp789
sS'0003'
p790
(dp791
sS'0008'
p792
(dp793
sS'0009'
p794
(dp795
sS'0016'
p796
(dp797
ssS'x20'
p798
(dp799
S'0017'
p800
(dp801
sS'0022'
p802
(dp803
sS'0015'
p804
(dp805
sS'0014'
p806
(dp807
sS'0013'
p808
(dp809
sS'0012'
p810
(dp811
sS'0011'
p812
(dp813
sS'0005'
p814
(dp815
sS'0006'
p816
(dp817
sS'0019'
p818
(dp819
sS'0018'
p820
(dp821
sS'0021'
p822
(dp823
sS'0024'
p824
(dp825
sS'0010'
p826
(dp827
sS'0004'
p828
(dp829
sS'0023'
p830
(dp831
sS'0020'
p832
(dp833
sS'0007'
p834
(dp835
sS'0000'
p836
(dp837
sS'0001'
p838
(dp839
sS'0002'
p840
(dp841
sS'0003'
p842
(dp843
sS'0008'
p844
(dp845
sS'0009'
p846
(dp847
sS'0016'
p848
(dp849
ssS'x5'
p850
(dp851
S'0017'
p852
(dp853
S'RS141_x5_0017_mask.png'
p854
NsS'RS141_x5_0017.tif'
p855
NssS'0022'
p856
(dp857
S'RS141_x5_0022.tif'
p858
NsS'RS141_x5_0022_mask.png'
p859
NssS'0015'
p860
(dp861
S'RS141_x5_0015.tif'
p862
NsS'RS141_x5_0015_mask.png'
p863
NssS'0014'
p864
(dp865
S'RS141_x5_0014_mask.png'
p866
NsS'RS141_x5_0014.tif'
p867
NssS'0013'
p868
(dp869
S'RS141_x5_0013.tif'
p870
NsS'RS141_x5_0013_mask.png'
p871
NssS'0012'
p872
(dp873
S'RS141_x5_0012.tif'
p874
NsS'RS141_x5_0012_mask.png'
p875
NssS'0011'
p876
(dp877
S'RS141_x5_0011_mask.png'
p878
NsS'RS141_x5_0011.tif'
p879
NssS'0005'
p880
(dp881
S'RS141_x5_0005.tif'
p882
NsS'pipelineResults'
p883
(dp884
S'RS141_x5_0005_gabor-blueNisslWide-vq-blueNissl_original_centroids.npy'
p885
NsS'RS141_x5_0005_segm-blueNissl2_spProps.npy'
p886
NsS'RS141_x5_0005_gabor-blueNisslWide-vq-blueNissl_texMap.png'
p887
NsS'RS141_x5_0005_segm-blueNissl2_neighbors.npy'
p888
NsS'RS141_x5_0005_gabor-blueNisslWide-segm-blueNissl2_dirMap.jpg'
p889
NsS'RS141_x5_0005_gabor-blueNisslWide_features.npy'
p890
NsS'RS141_x5_0005_gabor-blueNisslWide_features_rotated.npy'
p891
NsS'RS141_x5_0005_gabor-blueNisslWide-segm-blueNissl2-vq-blueNissl_texHist.npy'
p892
NsS'RS141_x5_0005_gabor-blueNisslWide-vq-blueNissl_texMap.npy'
p893
NsS'RS141_x5_0005_segm-blueNissl2_segmentationWithText.jpg'
p894
NsS'RS141_x5_0005_segm-blueNissl2_segmentation.npy'
p895
NsS'RS141_x5_0005_gabor-blueNisslWide-segm-blueNissl2-vq-blueNissl_clusters.pkl'
p896
NsS'RS141_x5_0005_gabor-blueNisslWide-segm-blueNissl2-vq-blueNissl_groups.pkl'
p897
NssS'RS141_x5_0005_mask.png'
p898
NssS'0006'
p899
(dp900
S'RS141_x5_0006_mask.png'
p901
NsS'RS141_x5_0006.tif'
p902
NssS'0019'
p903
(dp904
S'RS141_x5_0019_mask.png'
p905
NsS'RS141_x5_0019.tif'
p906
NssS'0018'
p907
(dp908
S'RS141_x5_0018_mask.png'
p909
NsS'RS141_x5_0018.tif'
p910
NssS'0021'
p911
(dp912
S'RS141_x5_0021_mask.png'
p913
NsS'RS141_x5_0021.tif'
p914
NssS'0010'
p915
(dp916
S'RS141_x5_0010_mask.png'
p917
NsS'RS141_x5_0010.tif'
p918
NssS'0004'
p919
(dp920
S'RS141_x5_0004.tif'
p921
NsS'vqResults'
p922
(dp923
S'RS141_x5_0004_gabor-blueNissl-vq-blueNissl_texMap.npy'
p924
NsS'RS141_x5_0004_gabor-blueNisslWide-vq-blueNissl_texMap.tif'
p925
NsS'RS141_x5_gabor-blueNissl-vq-blueNissl_texMap.npy'
p926
NsS'RS141_x5_gabor-blueNissl-vq-blueNissl_texMap.tif'
p927
NsS'RS141_x5_0004_gabor-blueNisslWide-vq-blueNissl_texMap.npy'
p928
NsS'RS141_x5_0004_gabor-blueNissl-vq-blueNissl_texMap.tif'
p929
NssS'filterResults'
p930
(dp931
S'RS141_x5_0004_gabor-blueNissl_cropMask.npy'
p932
NsS'RS141_x5_0004_gabor-blueNisslWide_kernels.pkl'
p933
NsS'RS141_x5_0004_gabor-blueNisslWide_cropMask.npy'
p934
NsS'RS141_x5_0004_gabor-blueNissl_cropFeatures.npy'
p935
NsS'RS141_x5_0004_gabor-blueNisslWide_cropImg.tif'
p936
NsS'RS141_x5_0004_gabor-blueNissl_cropImg.tif'
p937
NsS'RS141_x5_0004_gabor-blueNisslWide_features.npy'
p938
NsS'RS141_x5_0004_gabor-blueNissl_cropMask.tif'
p939
NsS'RS141_x5_0004_gabor-blueNisslWide_cropFeatures.npy'
p940
NsS'RS141_x5_0004_gabor-blueNisslWide_cropMask.tif'
p941
NsS'RS141_x5_0004_gabor-blueNissl_features.npy'
p942
NssS'pipelineResults'
p943
(dp944
S'RS141_x5_0004_gabor-blueNisslWide-vq-blueNissl_original_centroids.npy'
p945
NsS'RS141_x5_0004_gabor-blueNisslWide-segm-blueNissl2-vq-blueNissl_clusters.pkl'
p946
NsS'RS141_x5_0004_segm-blueNissl2_neighbors.npy'
p947
NsS'RS141_x5_0004_gabor-blueNisslWide-segm-blueNissl2-vq-blueNissl_texHist.npy'
p948
NsS'RS141_x5_0004_gabor-blueNisslWide-vq-blueNissl_texMap.png'
p949
NsS'RS141_x5_0004_gabor-blueNisslWide_features.npy'
p950
NsS'RS141_x5_0004_segm-blueNissl2_spProps.npy'
p951
NsS'RS141_x5_0004_gabor-blueNisslWide-segm-blueNissl2-vq-blueNissl_groups.pkl'
p952
NsS'RS141_x5_0004_gabor-blueNisslWide_features_rotated.npy'
p953
NsS'RS141_x5_0004_gabor-blueNisslWide-vq-blueNissl_texMap.npy'
p954
NsS'RS141_x5_0004_gabor-blueNisslWide-segm-blueNissl2_dirMap.jpg'
p955
NsS'RS141_x5_0004_segm-blueNissl2_segmentationWithText.jpg'
p956
NsS'RS141_x5_0004_segm-blueNissl2_segmentation.npy'
p957
NssS'segmResults'
p958
(dp959
S'RS141_x5_0004_gabor-blueNisslWide-segm-blueNissl_neighbors.npy'
p960
NsS'RS141_x5_0004_gabor-blueNissl-segm-blueNissl_cropSegmentation.npy'
p961
NsS'RS141_x5_0004_gabor-blueNissl-segm-blueNissl_cropSegmentation.tif'
p962
NsS'RS141_x5_0004_gabor-blueNisslWide-segm-blueNissl_cropSpProps.npy'
p963
NsS'RS141_x5_0004_gabor-blueNisslWide-segm-blueNissl_cropSegmentation.tif'
p964
NsS'RS141_x5_0004_segm-blueNissl_segmentation.npy'
p965
NsS'RS141_x5_0004_gabor-blueNissl-segm-blueNissl_neighbors.npy'
p966
NsS'RS141_x5_0004_gabor-blueNisslWide-segm-blueNissl_cropSegmentation.npy'
p967
NssS'RS141_x5_0004_mask.png'
p968
NsS'histResults'
p969
(dp970
S'RS141_x5_0004_gabor-blueNisslWide-segm-blueNissl-vq-blueNissl_texHist.npy'
p971
NsssS'0023'
p972
(dp973
S'RS141_x5_0023.tif'
p974
NsS'RS141_x5_0023_mask.png'
p975
NssS'0020'
p976
(dp977
S'RS141_x5_0020_mask.png'
p978
NsS'RS141_x5_0020.tif'
p979
NssS'0007'
p980
(dp981
S'RS141_x5_0007_mask.png'
p982
NsS'RS141_x5_0007.tif'
p983
NssS'0000'
p984
(dp985
S'RS141_x5_0000_mask.png'
p986
NsS'vqResults'
p987
(dp988
S'RS141_x5_0000_gabor-blueNissl-vq-blueNissl_texMap.tif'
p989
NsS'RS141_x5_gabor-blueNissl-vq-blueNissl_texMap.npy'
p990
NsS'RS141_x5_gabor-blueNissl-vq-blueNissl_texMap.tif'
p991
NsS'RS141_x5_0000_gabor-blueNisslWide-vq-blueNissl_texMap.tif'
p992
NsS'RS141_x5_0000_gabor-blueNissl-vq-blueNissl_texMap.npy'
p993
NsS'RS141_x5_0000_gabor-blueNisslWide-vq-blueNissl_texMap.npy'
p994
NssS'filterResults'
p995
(dp996
S'RS141_x5_0000_gabor-blueNisslWide_features.npy'
p997
NsS'RS141_x5_0000_gabor-blueNisslWide_cropMask.tif'
p998
NsS'RS141_x5_0000_gabor-blueNisslWide_kernels.pkl'
p999
NsS'RS141_x5_0000_gabor-blueNissl_cropFeatures.npy'
p1000
NsS'RS141_x5_0000_gabor-blueNissl_features.npy'
p1001
NsS'RS141_x5_0000_gabor-blueNissl_cropMask.npy'
p1002
NsS'RS141_x5_0000_gabor-blueNisslWide_cropFeatures.npy'
p1003
NsS'RS141_x5_0000_gabor-blueNissl_cropImg.tif'
p1004
NsS'RS141_x5_0000_gabor-blueNisslWide_features_rotated.npy'
p1005
NsS'RS141_x5_0000_gabor-blueNisslWide_cropImg.tif'
p1006
NsS'RS141_x5_0000_gabor-blueNissl_cropMask.tif'
p1007
NsS'RS141_x5_0000_gabor-blueNisslWide_cropMask.npy'
p1008
NssS'sigboostResults'
p1009
(dp1010
sS'segmResults'
p1011
(dp1012
S'RS141_x5_0000_segm-blueNissl_segmentation.npy'
p1013
NsS'RS141_x5_0000_gabor-blueNissl-segm-blueNissl_cropSegmentation.npy'
p1014
NsS'RS141_x5_0000_gabor-blueNisslWide-segm-blueNissl_cropSpProps.npy'
p1015
NsS'RS141_x5_0000_gabor-blueNissl-segm-blueNissl_cropSegmentation.tif'
p1016
NsS'RS141_x5_0000_gabor-blueNisslWide-segm-blueNissl_neighbors.npy'
p1017
NsS'RS141_x5_0000_gabor-blueNissl-segm-blueNissl_neighbors.npy'
p1018
NsS'RS141_x5_0000_gabor-blueNisslWide-segm-blueNissl_cropSegmentation.tif'
p1019
NsS'RS141_x5_0000_gabor-blueNisslWide-segm-blueNissl_cropSegmentation.npy'
p1020
NssS'RS141_x5_0000.tif'
p1021
NsS'histResults'
p1022
(dp1023
S'RS141_x5_0000_gabor-blueNisslWide-segm-blueNissl-vq-blueNissl_texHist.npy'
p1024
NsssS'0001'
p1025
(dp1026
S'labelings'
p1027
(dp1028
S'RS141_x5_0001_anon_11032014025541.pkl'
p1029
NsS'RS141_x5_0001_anon_11042014154647.pkl'
p1030
NssS'RS141_x5_0001_mask.png'
p1031
NsS'RS141_x5_0001_gabor-blueNisslWide-vq-blueNissl_textons.npy'
p1032
NsS'RS141_x5_0001.tif'
p1033
NsS'pipelineResults'
p1034
(dp1035
S'RS141_x5_0001_gabor-blueNisslWide_features_rotated.npy'
p1036
NsS'RS141_x5_0001_gabor-blueNisslWide-segm-blueNissl-vq-blueNissl_clusters.pkl'
p1037
NsS'RS141_x5_0001_segm-blueNissl_segmentation.npy'
p1038
NsS'RS141_x5_0001_gabor-blueNisslWide-segm-blueNissl2_dirMap.jpg'
p1039
NsS'RS141_x5_0001_segm-blueNissl2_segmentation.npy'
p1040
NsS'RS141_x5_0001_segm-blueNissl_neighbors.npy'
p1041
NsS'RS141_x5_0001_gabor-blueNisslWide-segm-blueNissl2-vq-blueNissl_clusters.pkl'
p1042
NsS'RS141_x5_0001_gabor-blueNisslWide-segm-blueNissl2_dirMap.tif'
p1043
NsS'RS141_x5_0001_gabor-blueNisslWide-segm-blueNissl2-vq-blueNissl_groups.pkl'
p1044
NsS'RS141_x5_0001_gabor-blueNisslWide_features_rotated_pca.npy'
p1045
NsS'RS141_x5_0001_gabor-blueNisslWide_kernels.pkl'
p1046
NsS'RS141_x5_0001_segm-blueNissl2_spProps.npy'
p1047
NsS'RS141_x5_0001_segm-blueNissl_segmentationWithText.jpg'
p1048
NsS'RS141_x5_0001_segm-blueNissl_spProps.npy'
p1049
NsS'RS141_x5_0001_gabor-blueNisslWide-segm-blueNissl-vq-blueNissl_groups.pkl'
p1050
NsS'RS141_x5_0001_gabor-blueNisslWide-vq-blueNissl_texMap.npy'
p1051
NsS'RS141_x5_0001_gabor-blueNisslWide-segm-blueNissl-vq-blueNissl_texHist.npy'
p1052
NsS'RS141_x5_0001_segm-blueNissl2_segmentationWithText.jpg'
p1053
NsS'RS141_x5_0001_gabor-blueNisslWide-vq-blueNissl_texMap.png'
p1054
NsS'RS141_x5_0001_segm-blueNissl2_neighbors.npy'
p1055
NsS'RS141_x5_0001_gabor-blueNisslWide_features.npy'
p1056
NsS'RS141_x5_0001_gabor-blueNisslWide-vq-blueNissl_original_centroids.npy'
p1057
NsS'RS141_x5_0001_gabor-blueNisslWide-segm-blueNissl2-vq-blueNissl_texHist.npy'
p1058
NsssS'0002'
p1059
(dp1060
S'vqResults'
p1061
(dp1062
S'RS141_x5_0002_gabor-blueNissl-vq-blueNissl_texMap.tif'
p1063
NsS'RS141_x5_0002_gabor-blueNisslWide-vq-blueNissl_texMap.tif'
p1064
NsS'RS141_x5_gabor-blueNissl-vq-blueNissl_texMap.npy'
p1065
NsS'RS141_x5_0002_gabor-blueNissl-vq-blueNissl_texMap.npy'
p1066
NsS'RS141_x5_gabor-blueNissl-segm-blueNissl-vq-blueNissl_texMap.npy'
p1067
NsS'RS141_x5_gabor-blueNissl-segm-blueNissl-vq-blueNissl_texMap.tif'
p1068
NsS'RS141_x5_0002_gabor-blueNisslWide-vq-blueNissl_texMap.npy'
p1069
NsS'RS141_x5_gabor-blueNissl-vq-blueNissl_texMap.tif'
p1070
NssS'filterResults'
p1071
(dp1072
S'RS141_x5_0002_gabor-blueNisslWide_kernels.pkl'
p1073
NsS'RS141_x5_0002_gabor-blueNissl_cropMask.tif'
p1074
NsS'RS141_x5_0002_gabor-blueNisslWide_cropMask.tif'
p1075
NsS'RS141_x5_0002_gabor-blueNissl_features.npy'
p1076
NsS'RS141_x5_0002_gabor-blueNissl_cropImg.tif'
p1077
NsS'RS141_x5_0002_gabor-blueNisslWide_cropImg.tif'
p1078
NsS'RS141_x5_0002_gabor-blueNissl_cropFeatures.npy'
p1079
NsS'RS141_x5_0002_gabor-blueNisslWide_cropFeatures.npy'
p1080
NsS'RS141_x5_0002_gabor-blueNisslWide_features.npy'
p1081
NsS'RS141_x5_0002_gabor-blueNisslWide_cropMask.npy'
p1082
NsS'RS141_x5_0002_gabor-blueNissl_cropMask.npy'
p1083
NssS'RS141_x5_0002_mask.png'
p1084
NsS'sigboostResults'
p1085
(dp1086
S'RS141_x5_0002_gabor-blueNisslWide-segm-blueNissl-vq-blueNissl_clusters.pkl'
p1087
NssS'pipelineResults'
p1088
(dp1089
S'RS141_x5_0002_segm-blueNissl2_spProps.npy'
p1090
NsS'RS141_x5_0002_gabor-blueNisslWide-segm-blueNissl2-vq-blueNissl_clusters.pkl'
p1091
NsS'RS141_x5_0002_segm-blueNissl2_neighbors.npy'
p1092
NsS'RS141_x5_0002_gabor-blueNisslWide_features_rotated.npy'
p1093
NsS'RS141_x5_0002_gabor-blueNisslWide-segm-blueNissl2_dirMap.jpg'
p1094
NsS'RS141_x5_0002_gabor-blueNisslWide-vq-blueNissl_texMap.npy'
p1095
NsS'RS141_x5_0002_gabor-blueNisslWide-vq-blueNissl_texMap.png'
p1096
NsS'RS141_x5_0002_gabor-blueNisslWide-segm-blueNissl2-vq-blueNissl_groups.pkl'
p1097
NsS'RS141_x5_0002_gabor-blueNisslWide_features.npy'
p1098
NsS'RS141_x5_0002_gabor-blueNisslWide-segm-blueNissl2-vq-blueNissl_texHist.npy'
p1099
NsS'RS141_x5_0002_segm-blueNissl2_segmentationWithText.jpg'
p1100
NsS'RS141_x5_0002_segm-blueNissl2_segmentation.npy'
p1101
NssS'segmResults'
p1102
(dp1103
S'RS141_x5_0002_gabor-blueNissl-segm-blueNissl_cropSegmentation.tif'
p1104
NsS'RS141_x5_0002_gabor-blueNisslWide-segm-blueNissl_cropSegmentation.npy'
p1105
NsS'RS141_x5_0002_segm-blueNissl_segmentation.npy'
p1106
NsS'RS141_x5_0002_gabor-blueNissl-segm-blueNissl_neighbors.npy'
p1107
NsS'RS141_x5_0002_gabor-blueNisslWide-segm-blueNissl_cropSegmentation.tif'
p1108
NsS'RS141_x5_0002_gabor-blueNisslWide-segm-blueNissl_cropSpProps.npy'
p1109
NsS'RS141_x5_0002_gabor-blueNissl-segm-blueNissl_cropSegmentation.npy'
p1110
NsS'RS141_x5_0002_gabor-blueNisslWide-segm-blueNissl_neighbors.npy'
p1111
NssS'RS141_x5_0002.tif'
p1112
NsS'histResults'
p1113
(dp1114
S'RS141_x5_0002_gabor-blueNisslWide-segm-blueNissl-vq-blueNissl_texHist.npy'
p1115
NsssS'0003'
p1116
(dp1117
S'vqResults'
p1118
(dp1119
S'RS141_x5_0003_gabor-blueNisslWide-vq-blueNissl_texMap.npy'
p1120
NsS'RS141_x5_gabor-blueNissl-vq-blueNissl_texMap.npy'
p1121
NsS'RS141_x5_0003_gabor-blueNissl-vq-blueNissl_texMap.tif'
p1122
NsS'RS141_x5_0003_gabor-blueNissl-vq-blueNissl_texMap.npy'
p1123
NsS'RS141_x5_gabor-blueNissl-vq-blueNissl_texMap.tif'
p1124
NsS'RS141_x5_0003_gabor-blueNisslWide-vq-blueNissl_texMap.tif'
p1125
NssS'RS141_x5_0003.tif'
p1126
NsS'filterResults'
p1127
(dp1128
S'RS141_x5_0003_gabor-blueNisslWide_cropMask.tif'
p1129
NsS'RS141_x5_0003_gabor-blueNissl_cropMask.tif'
p1130
NsS'RS141_x5_0003_gabor-blueNissl_cropFeatures.npy'
p1131
NsS'RS141_x5_0003_gabor-blueNissl_cropMask.npy'
p1132
NsS'RS141_x5_0003_gabor-blueNissl_features.npy'
p1133
NsS'RS141_x5_0003_gabor-blueNisslWide_features.npy'
p1134
NsS'RS141_x5_0003_gabor-blueNisslWide_cropImg.tif'
p1135
NsS'RS141_x5_0003_gabor-blueNissl_cropImg.tif'
p1136
NsS'RS141_x5_0003_gabor-blueNisslWide_cropMask.npy'
p1137
NsS'RS141_x5_0003_gabor-blueNisslWide_kernels.pkl'
p1138
NsS'RS141_x5_0003_gabor-blueNisslWide_cropFeatures.npy'
p1139
NssS'sigboostResults'
p1140
(dp1141
S'RS141_x5_0003_gabor-blueNisslWide-segm-blueNissl-vq-blueNissl_clusters.pkl'
p1142
NssS'pipelineResults'
p1143
(dp1144
S'RS141_x5_0003_gabor-blueNisslWide-vq-blueNissl_texMap.png'
p1145
NsS'RS141_x5_0003_gabor-blueNisslWide-vq-blueNissl_texMap.npy'
p1146
NsS'RS141_x5_0003_segm-blueNissl2_spProps.npy'
p1147
NsS'RS141_x5_0003_segm-blueNissl2_segmentation.npy'
p1148
NsS'RS141_x5_0003_gabor-blueNisslWide-segm-blueNissl2-vq-blueNissl_clusters.pkl'
p1149
NsS'RS141_x5_0003_gabor-blueNisslWide-segm-blueNissl2-vq-blueNissl_texHist.npy'
p1150
NsS'RS141_x5_0003_gabor-blueNisslWide_features_rotated.npy'
p1151
NsS'RS141_x5_0003_gabor-blueNisslWide-segm-blueNissl2-vq-blueNissl_groups.pkl'
p1152
NsS'RS141_x5_0003_gabor-blueNisslWide_features.npy'
p1153
NsS'RS141_x5_0003_segm-blueNissl2_neighbors.npy'
p1154
NsS'RS141_x5_0003_segm-blueNissl2_segmentationWithText.jpg'
p1155
NsS'RS141_x5_0003_gabor-blueNisslWide-segm-blueNissl2_dirMap.jpg'
p1156
NssS'segmResults'
p1157
(dp1158
S'RS141_x5_0003_gabor-blueNissl-segm-blueNissl_neighbors.npy'
p1159
NsS'RS141_x5_0003_gabor-blueNisslWide-segm-blueNissl_cropSegmentation.tif'
p1160
NsS'RS141_x5_0003_gabor-blueNissl-segm-blueNissl_cropSegmentation.npy'
p1161
NsS'RS141_x5_0003_gabor-blueNisslWide-segm-blueNissl_cropSpProps.npy'
p1162
NsS'RS141_x5_0003_gabor-blueNisslWide-segm-blueNissl_cropSegmentation.npy'
p1163
NsS'RS141_x5_0003_segm-blueNissl_segmentation.npy'
p1164
NsS'RS141_x5_0003_gabor-blueNisslWide-segm-blueNissl_neighbors.npy'
p1165
NsS'RS141_x5_0003_gabor-blueNissl-segm-blueNissl_cropSegmentation.tif'
p1166
NssS'RS141_x5_0003_mask.png'
p1167
NsS'histResults'
p1168
(dp1169
S'RS141_x5_0003_gabor-blueNisslWide-segm-blueNissl-vq-blueNissl_texHist.npy'
p1170
NsssS'0008'
p1171
(dp1172
S'RS141_x5_0008_mask.png'
p1173
NsS'RS141_x5_0008.tif'
p1174
NssS'0009'
p1175
(dp1176
S'RS141_x5_0009_mask.png'
p1177
NsS'RS141_x5_0009.tif'
p1178
NssS'0016'
p1179
(dp1180
S'RS141_x5_0016_mask.png'
p1181
NsS'RS141_x5_0016.tif'
p1182
NssS'RS141_x5_gabor-blueNisslWide-vq-blueNissl_textons.npy'
p1183
NsssS'RS140'
p1184
(dp1185
S'x1.25'
p1186
(dp1187
S'0017'
p1188
(dp1189
sS'0022'
p1190
(dp1191
sS'0015'
p1192
(dp1193
sS'0014'
p1194
(dp1195
sS'0013'
p1196
(dp1197
sS'0012'
p1198
(dp1199
sS'0011'
p1200
(dp1201
sS'0005'
p1202
(dp1203
sS'0035'
p1204
(dp1205
sS'0034'
p1206
(dp1207
sS'0036'
p1208
(dp1209
sS'0031'
p1210
(dp1211
sS'0006'
p1212
(dp1213
sS'0033'
p1214
(dp1215
sS'0032'
p1216
(dp1217
sS'0021'
p1218
(dp1219
sS'0010'
p1220
(dp1221
sS'0026'
p1222
(dp1223
sS'0001'
p1224
(dp1225
sS'0024'
p1226
(dp1227
sS'0003'
p1228
(dp1229
sS'0004'
p1230
(dp1231
sS'0023'
p1232
(dp1233
sS'0020'
p1234
(dp1235
sS'0007'
p1236
(dp1237
sS'0000'
p1238
(dp1239
sS'0027'
p1240
(dp1241
sS'0002'
p1242
(dp1243
sS'0025'
p1244
(dp1245
sS'0028'
p1246
(dp1247
sS'0029'
p1248
(dp1249
sS'0008'
p1250
(dp1251
sS'0009'
p1252
(dp1253
sS'0030'
p1254
(dp1255
sS'0019'
p1256
(dp1257
sS'0018'
p1258
(dp1259
sS'0016'
p1260
(dp1261
ssS'x20'
p1262
(dp1263
S'0017'
p1264
(dp1265
sS'0022'
p1266
(dp1267
sS'0015'
p1268
(dp1269
sS'0014'
p1270
(dp1271
sS'0013'
p1272
(dp1273
sS'0012'
p1274
(dp1275
sS'0011'
p1276
(dp1277
sS'0005'
p1278
(dp1279
sS'0035'
p1280
(dp1281
sS'0034'
p1282
(dp1283
sS'0036'
p1284
(dp1285
sS'0031'
p1286
(dp1287
sS'0006'
p1288
(dp1289
sS'0033'
p1290
(dp1291
sS'0032'
p1292
(dp1293
sS'0021'
p1294
(dp1295
sS'0010'
p1296
(dp1297
sS'0026'
p1298
(dp1299
sS'0001'
p1300
(dp1301
sS'0024'
p1302
(dp1303
sS'0003'
p1304
(dp1305
sS'0004'
p1306
(dp1307
sS'0023'
p1308
(dp1309
sS'0020'
p1310
(dp1311
sS'0007'
p1312
(dp1313
sS'0000'
p1314
(dp1315
sS'0027'
p1316
(dp1317
sS'0002'
p1318
(dp1319
sS'0025'
p1320
(dp1321
sS'0028'
p1322
(dp1323
sS'0029'
p1324
(dp1325
sS'0008'
p1326
(dp1327
sS'0009'
p1328
(dp1329
sS'0030'
p1330
(dp1331
sS'0019'
p1332
(dp1333
sS'0018'
p1334
(dp1335
sS'0016'
p1336
(dp1337
ssS'x5'
p1338
(dp1339
S'0017'
p1340
(dp1341
sS'0022'
p1342
(dp1343
sS'0015'
p1344
(dp1345
sS'0014'
p1346
(dp1347
sS'0013'
p1348
(dp1349
sS'0012'
p1350
(dp1351
sS'0011'
p1352
(dp1353
sS'0005'
p1354
(dp1355
sS'0035'
p1356
(dp1357
sS'0034'
p1358
(dp1359
sS'0036'
p1360
(dp1361
sS'0031'
p1362
(dp1363
sS'0006'
p1364
(dp1365
sS'0033'
p1366
(dp1367
sS'0032'
p1368
(dp1369
sS'0021'
p1370
(dp1371
sS'0010'
p1372
(dp1373
sS'0026'
p1374
(dp1375
sS'0001'
p1376
(dp1377
sS'0024'
p1378
(dp1379
sS'0003'
p1380
(dp1381
sS'0004'
p1382
(dp1383
sS'0023'
p1384
(dp1385
sS'0020'
p1386
(dp1387
sS'0007'
p1388
(dp1389
sS'0000'
p1390
(dp1391
sS'0027'
p1392
(dp1393
sS'0002'
p1394
(dp1395
sS'0025'
p1396
(dp1397
sS'0028'
p1398
(dp1399
sS'0029'
p1400
(dp1401
sS'0008'
p1402
(dp1403
sS'0009'
p1404
(dp1405
sS'0030'
p1406
(dp1407
sS'0019'
p1408
(dp1409
sS'0018'
p1410
(dp1411
sS'0016'
p1412
(dp1413
ssss.