(dp1
S'IHC_36'
p2
(dp3
I1
S'MD589-IHC36-2015.07.30-23.46.36_MD589_1_0106'
p4
sI2
S'MD589-IHC36-2015.07.30-23.46.36_MD589_2_0107'
p5
sI3
S'Nonexisting'
p6
ssS'IHC_37'
p7
(dp8
I1
S'MD589-IHC37-2015.07.30-23.50.39_MD589_1_0109'
p9
sI2
S'MD589-IHC37-2015.07.30-23.50.39_MD589_2_0110'
p10
sI3
g6
ssS'IHC_34'
p11
(dp12
I1
S'MD589-IHC34-2015.07.30-23.38.35_MD589_1_0100'
p13
sI2
S'MD589-IHC34-2015.07.30-23.38.35_MD589_2_0101'
p14
sI3
g6
ssS'IHC_35'
p15
(dp16
I1
S'MD589-IHC35-2015.07.30-23.42.32_MD589_1_0103'
p17
sI2
S'MD589-IHC35-2015.07.30-23.42.32_MD589_2_0104'
p18
sI3
g6
ssS'IHC_32'
p19
(dp20
I1
S'MD589-IHC32-2015.07.30-23.30.34_MD589_1_0094'
p21
sI2
S'MD589-IHC32-2015.07.30-23.30.34_MD589_2_0095'
p22
sI3
g6
ssS'IHC_33'
p23
(dp24
I1
S'MD589-IHC33-2015.07.30-23.34.35_MD589_1_0097'
p25
sI2
S'MD589-IHC33-2015.07.30-23.34.35_MD589_2_0098'
p26
sI3
g6
ssS'IHC_30'
p27
(dp28
I1
S'MD589-IHC30-2015.07.30-23.20.46_MD589_1_0088'
p29
sI2
S'MD589-IHC30-2015.07.30-23.20.46_MD589_2_0089'
p30
sI3
S'MD589-IHC30-2015.07.30-23.20.46_MD589_3_0090'
p31
ssS'IHC_31'
p32
(dp33
I1
S'MD589-IHC31-2015.07.30-23.26.22_MD589_1_0091'
p34
sI2
S'MD589-IHC31-2015.07.30-23.26.22_MD589_2_0092'
p35
sI3
g6
ssS'IHC_38'
p36
(dp37
I1
S'MD589-IHC38-2015.07.30-23.54.24_MD589_1_0112'
p38
sI2
S'MD589-IHC38-2015.07.30-23.54.24_MD589_2_0113'
p39
sI3
g6
ssS'IHC_39'
p40
(dp41
I1
S'MD589-IHC39-2015.07.30-23.58.27_MD589_1_0115'
p42
sI2
S'MD589-IHC39-2015.07.30-23.58.27_MD589_2_0116'
p43
sI3
g6
ssS'N_23'
p44
(dp45
I1
S'MD589-N23-2015.07.30-17.31.29_MD589_1_0067'
p46
sI2
S'MD589-N23-2015.07.30-17.31.29_MD589_2_0068'
p47
sI3
S'MD589-N23-2015.07.30-17.31.29_MD589_3_0069'
p48
ssS'N_22'
p49
(dp50
I1
S'MD589-N22-2015.07.30-17.27.26_MD589_1_0064'
p51
sI2
S'MD589-N22-2015.07.30-17.27.26_MD589_2_0065'
p52
sI3
S'MD589-N22-2015.07.30-17.27.26_MD589_3_0066'
p53
ssS'N_21'
p54
(dp55
I1
S'MD589-N21-2015.07.30-17.23.23_MD589_1_0061'
p56
sI2
S'MD589-N21-2015.07.30-17.23.23_MD589_2_0062'
p57
sI3
S'MD589-N21-2015.07.30-17.23.23_MD589_3_0063'
p58
ssS'N_20'
p59
(dp60
I1
S'MD589-N20-2015.07.30-17.19.14_MD589_1_0058'
p61
sI2
S'MD589-N20-2015.07.30-17.19.14_MD589_2_0059'
p62
sI3
S'MD589-N20-2015.07.30-17.19.14_MD589_3_0060'
p63
ssS'N_27'
p64
(dp65
I1
S'MD589-N27-2015.07.30-17.49.06_MD589_1_0079'
p66
sI2
S'MD589-N27-2015.07.30-17.49.06_MD589_2_0080'
p67
sI3
S'MD589-N27-2015.07.30-17.49.06_MD589_3_0081'
p68
ssS'N_26'
p69
(dp70
I1
S'MD589-N26-2015.07.30-17.44.37_MD589_1_0076'
p71
sI2
S'MD589-N26-2015.07.30-17.44.37_MD589_2_0077'
p72
sI3
S'MD589-N26-2015.07.30-17.44.37_MD589_3_0078'
p73
ssS'N_25'
p74
(dp75
I1
S'MD589-N25-2015.07.30-17.40.16_MD589_1_0073'
p76
sI2
S'MD589-N25-2015.07.30-17.40.16_MD589_2_0074'
p77
sI3
S'MD589-N25-2015.07.30-17.40.16_MD589_3_0075'
p78
ssS'N_24'
p79
(dp80
I1
S'MD589-N24-2015.07.30-17.35.51_MD589_1_0070'
p81
sI2
S'MD589-N24-2015.07.30-17.35.51_MD589_2_0071'
p82
sI3
S'MD589-N24-2015.07.30-17.35.51_MD589_3_0072'
p83
ssS'N_29'
p84
(dp85
I1
S'MD589-N29-2015.07.30-17.58.29_MD589_1_0085'
p86
sI2
S'MD589-N29-2015.07.30-17.58.29_MD589_2_0086'
p87
sI3
S'MD589-N29-2015.07.30-17.58.29_MD589_3_0087'
p88
ssS'N_28'
p89
(dp90
I1
S'MD589-N28-2015.07.30-17.53.43_MD589_1_0082'
p91
sI2
S'MD589-N28-2015.07.30-17.53.43_MD589_2_0083'
p92
sI3
S'MD589-N28-2015.07.30-17.53.43_MD589_3_0084'
p93
ssS'N_81'
p94
(dp95
I1
S'MD589-N81-2015.07.30-21.26.03_MD589_1_0241'
p96
sI2
S'MD589-N81-2015.07.30-21.26.03_MD589_2_0242'
p97
sI3
S'MD589-N81-2015.07.30-21.26.03_MD589_3_0243'
p98
ssS'N_80'
p99
(dp100
I1
S'MD589-N80-2015.07.30-21.22.59_MD589_1_0238'
p101
sI2
S'MD589-N80-2015.07.30-21.22.59_MD589_2_0239'
p102
sI3
S'MD589-N80-2015.07.30-21.22.59_MD589_3_0240'
p103
ssS'N_82'
p104
(dp105
I1
S'MD589-N82-2015.07.30-21.28.40_MD589_1_0244'
p106
sI2
S'MD589-N82-2015.07.30-21.28.40_MD589_2_0245'
p107
sI3
g6
ssS'IHC_25'
p108
(dp109
I1
S'MD589-IHC25-2015.07.30-22.57.23_MD589_1_0073'
p110
sI2
S'MD589-IHC25-2015.07.30-22.57.23_MD589_2_0074'
p111
sI3
S'MD589-IHC25-2015.07.30-22.57.23_MD589_3_0075'
p112
ssS'IHC_24'
p113
(dp114
I1
S'MD589-IHC24-2015.07.30-22.52.55_MD589_1_0070'
p115
sI2
S'MD589-IHC24-2015.07.30-22.52.55_MD589_2_0071'
p116
sI3
S'MD589-IHC24-2015.07.30-22.52.55_MD589_3_0072'
p117
ssS'IHC_27'
p118
(dp119
I1
S'MD589-IHC27-2015.07.30-23.06.26_MD589_1_0079'
p120
sI2
S'MD589-IHC27-2015.07.30-23.06.26_MD589_2_0080'
p121
sI3
S'MD589-IHC27-2015.07.30-23.06.26_MD589_3_0081'
p122
ssS'IHC_26'
p123
(dp124
I1
S'MD589-IHC26-2015.07.30-23.01.56_MD589_1_0076'
p125
sI2
S'MD589-IHC26-2015.07.30-23.01.56_MD589_2_0077'
p126
sI3
S'MD589-IHC26-2015.07.30-23.01.56_MD589_3_0078'
p127
ssS'IHC_21'
p128
(dp129
I1
S'MD589-IHC21-2015.07.30-22.40.00_MD589_1_0061'
p130
sI2
S'MD589-IHC21-2015.07.30-22.40.00_MD589_2_0062'
p131
sI3
S'MD589-IHC21-2015.07.30-22.40.00_MD589_3_0063'
p132
ssS'IHC_20'
p133
(dp134
I1
S'MD589-IHC20-2015.07.30-22.36.03_MD589_1_0058'
p135
sI2
S'MD589-IHC20-2015.07.30-22.36.03_MD589_2_0059'
p136
sI3
S'MD589-IHC20-2015.07.30-22.36.03_MD589_3_0060'
p137
ssS'IHC_23'
p138
(dp139
I1
S'MD589-IHC23-2015.07.30-22.48.41_MD589_1_0067'
p140
sI2
S'MD589-IHC23-2015.07.30-22.48.41_MD589_2_0068'
p141
sI3
S'MD589-IHC23-2015.07.30-22.48.41_MD589_3_0069'
p142
ssS'IHC_22'
p143
(dp144
I1
S'MD589-IHC22-2015.07.30-22.44.25_MD589_1_0064'
p145
sI2
S'MD589-IHC22-2015.07.30-22.44.25_MD589_2_0065'
p146
sI3
S'MD589-IHC22-2015.07.30-22.44.25_MD589_3_0066'
p147
ssS'IHC_29'
p148
(dp149
I1
S'MD589-IHC29-2015.07.30-23.16.01_MD589_1_0085'
p150
sI2
S'MD589-IHC29-2015.07.30-23.16.01_MD589_2_0086'
p151
sI3
S'MD589-IHC29-2015.07.30-23.16.01_MD589_3_0087'
p152
ssS'IHC_28'
p153
(dp154
I1
S'MD589-IHC28-2015.07.30-23.11.15_MD589_1_0082'
p155
sI2
S'MD589-IHC28-2015.07.30-23.11.15_MD589_2_0083'
p156
sI3
S'MD589-IHC28-2015.07.30-23.11.15_MD589_3_0084'
p157
ssS'N_18'
p158
(dp159
I1
S'MD589-N18-2015.07.30-17.11.24_MD589_1_0052'
p160
sI2
S'MD589-N18-2015.07.30-17.11.24_MD589_2_0053'
p161
sI3
S'MD589-N18-2015.07.30-17.11.24_MD589_3_0054'
p162
ssS'N_19'
p163
(dp164
I1
S'MD589-N19-2015.07.30-17.15.15_MD589_1_0055'
p165
sI2
S'MD589-N19-2015.07.30-17.15.15_MD589_2_0056'
p166
sI3
S'MD589-N19-2015.07.30-17.15.15_MD589_3_0057'
p167
ssS'N_16'
p168
(dp169
I1
S'MD589-N16-2015.07.30-17.03.43_MD589_1_0046'
p170
sI2
S'MD589-N16-2015.07.30-17.03.43_MD589_2_0047'
p171
sI3
S'MD589-N16-2015.07.30-17.03.43_MD589_3_0048'
p172
ssS'N_17'
p173
(dp174
I1
S'MD589-N17-2015.07.30-17.07.32_MD589_1_0049'
p175
sI2
S'MD589-N17-2015.07.30-17.07.32_MD589_2_0050'
p176
sI3
S'MD589-N17-2015.07.30-17.07.32_MD589_3_0051'
p177
ssS'N_14'
p178
(dp179
I1
S'MD589-N14-2015.07.30-16.55.58_MD589_1_0040'
p180
sI2
S'MD589-N14-2015.07.30-16.55.58_MD589_2_0041'
p181
sI3
S'MD589-N14-2015.07.30-16.55.58_MD589_3_0042'
p182
ssS'N_15'
p183
(dp184
I1
S'MD589-N15-2015.07.30-16.59.48_MD589_1_0043'
p185
sI2
S'MD589-N15-2015.07.30-16.59.48_MD589_2_0044'
p186
sI3
S'MD589-N15-2015.07.30-16.59.48_MD589_3_0045'
p187
ssS'N_12'
p188
(dp189
I1
S'MD589-N12-2015.08.04-08.43.30_MD589_1_0034'
p190
sI2
S'MD589-N12-2015.08.04-08.43.30_MD589_2_0035'
p191
sI3
S'MD589-N12-2015.08.04-08.43.30_MD589_3_0036'
p192
ssS'N_10'
p193
(dp194
I1
S'MD589-N10-2015.07.30-16.48.18_MD589_1_0028'
p195
sI2
S'MD589-N10-2015.07.30-16.48.18_MD589_2_0029'
p196
sI3
S'MD589-N10-2015.07.30-16.48.18_MD589_3_0030'
p197
ssS'N_11'
p198
(dp199
I1
S'MD589-N11-2015.07.30-16.52.12_MD589_1_0031'
p200
sI2
S'MD589-N11-2015.07.30-16.52.12_MD589_2_0032'
p201
sI3
S'MD589-N11-2015.07.30-16.52.12_MD589_3_0033'
p202
ssS'N_78'
p203
(dp204
I1
S'MD589-N78-2015.07.30-21.16.39_MD589_1_0232'
p205
sI2
S'MD589-N78-2015.07.30-21.16.39_MD589_2_0233'
p206
sI3
S'MD589-N78-2015.07.30-21.16.39_MD589_3_0234'
p207
ssS'N_79'
p208
(dp209
I1
S'MD589-N79-2015.07.30-21.19.47_MD589_1_0235'
p210
sI2
S'MD589-N79-2015.07.30-21.19.47_MD589_2_0236'
p211
sI3
S'MD589-N79-2015.07.30-21.19.47_MD589_3_0237'
p212
ssS'N_74'
p213
(dp214
I1
S'MD589-N74-2015.07.30-21.06.16_MD589_1_0220'
p215
sI2
S'MD589-N74-2015.07.30-21.06.16_MD589_2_0221'
p216
sI3
S'MD589-N74-2015.07.30-21.06.16_MD589_3_0222'
p217
ssS'N_75'
p218
(dp219
I1
S'MD589-N75-2015.07.30-21.09.51_MD589_1_0223'
p220
sI2
S'MD589-N75-2015.07.30-21.09.51_MD589_2_0224'
p221
sI3
S'MD589-N75-2015.07.30-21.09.51_MD589_3_0225'
p222
ssS'N_76'
p223
(dp224
I1
S'MD589-N76-2015.08.04-08.40.03_MD589_1_0226'
p225
sI2
S'MD589-N76-2015.08.04-08.40.03_MD589_2_0227'
p226
sI3
S'MD589-N76-2015.08.04-08.40.03_MD589_3_0228'
p227
ssS'N_77'
p228
(dp229
I1
S'MD589-N77-2015.07.30-21.13.20_MD589_1_0229'
p230
sI2
S'MD589-N77-2015.07.30-21.13.20_MD589_2_0230'
p231
sI3
S'MD589-N77-2015.07.30-21.13.20_MD589_3_0231'
p232
ssS'N_70'
p233
(dp234
I1
S'MD589-N70-2015.07.30-20.50.53_MD589_1_0208'
p235
sI2
S'MD589-N70-2015.07.30-20.50.53_MD589_2_0209'
p236
sI3
S'MD589-N70-2015.07.30-20.50.53_MD589_3_0210'
p237
ssS'N_71'
p238
(dp239
I1
S'MD589-N71-2015.07.30-20.54.42_MD589_1_0211'
p240
sI2
S'MD589-N71-2015.07.30-20.54.42_MD589_2_0212'
p241
sI3
S'MD589-N71-2015.07.30-20.54.42_MD589_3_0213'
p242
ssS'N_72'
p243
(dp244
I1
S'MD589-N72-2015.07.30-20.58.34_MD589_1_0214'
p245
sI2
S'MD589-N72-2015.07.30-20.58.34_MD589_2_0215'
p246
sI3
S'MD589-N72-2015.07.30-20.58.34_MD589_3_0216'
p247
ssS'N_73'
p248
(dp249
I1
S'MD589-N73-2015.07.30-21.02.25_MD589_1_0217'
p250
sI2
S'MD589-N73-2015.07.30-21.02.25_MD589_2_0218'
p251
sI3
S'MD589-N73-2015.07.30-21.02.25_MD589_3_0219'
p252
ssS'IHC_10'
p253
(dp254
I1
S'MD589-IHC10-2015.07.30-21.57.04_MD589_1_0028'
p255
sI2
S'MD589-IHC10-2015.07.30-21.57.04_MD589_2_0029'
p256
sI3
S'MD589-IHC10-2015.07.30-21.57.04_MD589_3_0030'
p257
ssS'IHC_11'
p258
(dp259
I1
S'MD589-IHC11-2015.07.30-22.00.52_MD589_1_0031'
p260
sI2
S'MD589-IHC11-2015.07.30-22.00.52_MD589_2_0032'
p261
sI3
S'MD589-IHC11-2015.07.30-22.00.52_MD589_3_0033'
p262
ssS'IHC_12'
p263
(dp264
I1
S'MD589-IHC12-2015.07.30-22.04.41_MD589_1_0034'
p265
sI2
S'MD589-IHC12-2015.07.30-22.04.41_MD589_2_0035'
p266
sI3
S'MD589-IHC12-2015.07.30-22.04.41_MD589_3_0036'
p267
ssS'IHC_13'
p268
(dp269
I1
S'MD589-IHC13-2015.07.30-22.08.30_MD589_1_0037'
p270
sI2
S'MD589-IHC13-2015.07.30-22.08.30_MD589_2_0038'
p271
sI3
S'MD589-IHC13-2015.07.30-22.08.30_MD589_3_0039'
p272
ssS'IHC_14'
p273
(dp274
I1
S'MD589-IHC14-2015.07.30-22.12.17_MD589_1_0040'
p275
sI2
S'MD589-IHC14-2015.07.30-22.12.17_MD589_2_0041'
p276
sI3
S'MD589-IHC14-2015.07.30-22.12.17_MD589_3_0042'
p277
ssS'IHC_15'
p278
(dp279
I1
S'MD589-IHC15-2015.07.30-22.16.07_MD589_1_0043'
p280
sI2
S'MD589-IHC15-2015.07.30-22.16.07_MD589_2_0044'
p281
sI3
S'MD589-IHC15-2015.07.30-22.16.07_MD589_3_0045'
p282
ssS'IHC_16'
p283
(dp284
I1
S'MD589-IHC16-2015.07.30-22.20.07_MD589_1_0046'
p285
sI2
S'MD589-IHC16-2015.07.30-22.20.07_MD589_2_0047'
p286
sI3
S'MD589-IHC16-2015.07.30-22.20.07_MD589_3_0048'
p287
ssS'IHC_17'
p288
(dp289
I1
S'MD589-IHC17-2015.07.30-22.23.59_MD589_1_0049'
p290
sI2
S'MD589-IHC17-2015.07.30-22.23.59_MD589_2_0050'
p291
sI3
S'MD589-IHC17-2015.07.30-22.23.59_MD589_3_0051'
p292
ssS'IHC_18'
p293
(dp294
I1
S'MD589-IHC18-2015.07.30-22.27.59_MD589_1_0052'
p295
sI2
S'MD589-IHC18-2015.07.30-22.27.59_MD589_2_0053'
p296
sI3
S'MD589-IHC18-2015.07.30-22.27.59_MD589_3_0054'
p297
ssS'IHC_19'
p298
(dp299
I1
S'MD589-IHC19-2015.07.30-22.32.05_MD589_1_0055'
p300
sI2
S'MD589-IHC19-2015.07.30-22.32.05_MD589_2_0056'
p301
sI3
S'MD589-IHC19-2015.07.30-22.32.05_MD589_3_0057'
p302
ssS'N_09'
p303
(dp304
I1
S'MD589-N9-2015.07.30-16.44.42_MD589_1_0025'
p305
sI2
S'MD589-N9-2015.07.30-16.44.42_MD589_2_0026'
p306
sI3
S'MD589-N9-2015.07.30-16.44.42_MD589_3_0027'
p307
ssS'N_08'
p308
(dp309
I1
S'MD589-N8-2015.07.30-16.41.22_MD589_1_0022'
p310
sI2
S'MD589-N8-2015.07.30-16.41.22_MD589_2_0023'
p311
sI3
S'MD589-N8-2015.07.30-16.41.22_MD589_3_0024'
p312
ssS'N_01'
p313
(dp314
I1
S'MD589-N1-2015.07.30-16.19.59_MD589_1_0001'
p315
sI2
S'MD589-N1-2015.07.30-16.19.59_MD589_2_0002'
p316
sI3
S'MD589-N1-2015.07.30-16.19.59_MD589_3_0003'
p317
ssS'N_03'
p318
(dp319
I1
S'MD589-N3-2015.07.30-16.25.24_MD589_1_0007'
p320
sI2
S'MD589-N3-2015.07.30-16.25.24_MD589_2_0008'
p321
sI3
S'MD589-N3-2015.07.30-16.25.24_MD589_3_0009'
p322
ssS'N_02'
p323
(dp324
I1
S'MD589-N2-2015.07.30-16.22.26_MD589_1_0004'
p325
sI2
S'MD589-N2-2015.07.30-16.22.26_MD589_2_0005'
p326
sI3
S'MD589-N2-2015.07.30-16.22.26_MD589_3_0006'
p327
ssS'N_05'
p328
(dp329
I1
S'MD589-N5-2015.07.30-16.31.30_MD589_1_0013'
p330
sI2
S'MD589-N5-2015.07.30-16.31.30_MD589_2_0014'
p331
sI3
S'MD589-N5-2015.07.30-16.31.30_MD589_3_0015'
p332
ssS'N_04'
p333
(dp334
I1
S'MD589-N4-2015.07.30-16.28.25_MD589_1_0010'
p335
sI2
S'MD589-N4-2015.07.30-16.28.25_MD589_2_0011'
p336
sI3
S'MD589-N4-2015.07.30-16.28.25_MD589_3_0012'
p337
ssS'N_07'
p338
(dp339
I1
S'MD589-N7-2015.07.30-16.38.01_MD589_1_0019'
p340
sI2
S'MD589-N7-2015.07.30-16.38.01_MD589_2_0020'
p341
sI3
S'MD589-N7-2015.07.30-16.38.01_MD589_3_0021'
p342
ssS'N_06'
p343
(dp344
I1
S'MD589-N6-2015.07.30-16.34.46_MD589_1_0016'
p345
sI2
S'MD589-N6-2015.07.30-16.34.46_MD589_2_0017'
p346
sI3
S'MD589-N6-2015.07.30-16.34.46_MD589_3_0018'
p347
ssS'N_69'
p348
(dp349
I1
S'MD589-N69-2015.07.30-20.46.59_MD589_1_0205'
p350
sI2
S'MD589-N69-2015.07.30-20.46.59_MD589_2_0206'
p351
sI3
S'MD589-N69-2015.07.30-20.46.59_MD589_3_0207'
p352
ssS'N_68'
p353
(dp354
I1
S'MD589-N68-2015.07.30-20.43.04_MD589_1_0202'
p355
sI2
S'MD589-N68-2015.07.30-20.43.04_MD589_2_0203'
p356
sI3
S'MD589-N68-2015.07.30-20.43.04_MD589_3_0204'
p357
ssS'N_67'
p358
(dp359
I1
S'MD589-N67-2015.07.30-20.39.13_MD589_1_0199'
p360
sI2
S'MD589-N67-2015.07.30-20.39.13_MD589_2_0200'
p361
sI3
S'MD589-N67-2015.07.30-20.39.13_MD589_3_0201'
p362
ssS'N_66'
p363
(dp364
I1
S'MD589-N66-2015.07.30-20.35.16_MD589_1_0196'
p365
sI2
S'MD589-N66-2015.07.30-20.35.16_MD589_2_0197'
p366
sI3
S'MD589-N66-2015.07.30-20.35.16_MD589_3_0198'
p367
ssS'N_65'
p368
(dp369
I1
S'MD589-N65-2015.07.30-20.31.20_MD589_1_0193'
p370
sI2
S'MD589-N65-2015.07.30-20.31.20_MD589_2_0194'
p371
sI3
S'MD589-N65-2015.07.30-20.31.20_MD589_3_0195'
p372
ssS'N_64'
p373
(dp374
I1
S'MD589-N64-2015.07.30-20.27.19_MD589_1_0190'
p375
sI2
S'MD589-N64-2015.07.30-20.27.19_MD589_2_0191'
p376
sI3
S'MD589-N64-2015.07.30-20.27.19_MD589_3_0192'
p377
ssS'N_63'
p378
(dp379
I1
S'MD589-N63-2015.07.30-20.23.12_MD589_1_0187'
p380
sI2
S'MD589-N63-2015.07.30-20.23.12_MD589_2_0188'
p381
sI3
S'MD589-N63-2015.07.30-20.23.12_MD589_3_0189'
p382
ssS'N_62'
p383
(dp384
I1
S'MD589-N62-2015.07.30-20.20.08_MD589_1_0184'
p385
sI2
S'MD589-N62-2015.07.30-20.20.08_MD589_2_0185'
p386
sI3
g6
ssS'N_61'
p387
(dp388
I1
S'MD589-N61-2015.07.30-20.15.47_MD589_1_0181'
p389
sI2
S'MD589-N61-2015.07.30-20.15.47_MD589_2_0182'
p390
sI3
S'MD589-N61-2015.07.30-20.15.47_MD589_3_0183'
p391
ssS'N_60'
p392
(dp393
I1
S'MD589-N60-2015.07.30-20.11.20_MD589_1_0178'
p394
sI2
S'MD589-N60-2015.07.30-20.11.20_MD589_2_0179'
p395
sI3
S'MD589-N60-2015.07.30-20.11.20_MD589_3_0180'
p396
ssS'IHC_09'
p397
(dp398
I1
S'MD589-IHC9-2015.07.30-21.53.17_MD589_1_0025'
p399
sI2
S'MD589-IHC9-2015.07.30-21.53.17_MD589_2_0026'
p400
sI3
S'MD589-IHC9-2015.07.30-21.53.17_MD589_3_0027'
p401
ssS'IHC_08'
p402
(dp403
I1
S'MD589-IHC8-2015.07.30-21.49.48_MD589_1_0022'
p404
sI2
S'MD589-IHC8-2015.07.30-21.49.48_MD589_2_0023'
p405
sI3
S'MD589-IHC8-2015.07.30-21.49.48_MD589_3_0024'
p406
ssS'IHC_07'
p407
(dp408
I1
S'MD589-IHC7-2015.07.30-21.46.35_MD589_1_0019'
p409
sI2
S'MD589-IHC7-2015.07.30-21.46.35_MD589_2_0020'
p410
sI3
S'MD589-IHC7-2015.07.30-21.46.35_MD589_3_0021'
p411
ssS'IHC_06'
p412
(dp413
I1
S'MD589-IHC6-2015.07.30-21.43.32_MD589_1_0016'
p414
sI2
S'MD589-IHC6-2015.07.30-21.43.32_MD589_2_0017'
p415
sI3
S'MD589-IHC6-2015.07.30-21.43.32_MD589_3_0018'
p416
ssS'IHC_05'
p417
(dp418
I1
S'MD589-IHC5-2015.07.30-21.40.24_MD589_1_0013'
p419
sI2
S'MD589-IHC5-2015.07.30-21.40.24_MD589_2_0014'
p420
sI3
S'MD589-IHC5-2015.07.30-21.40.24_MD589_3_0015'
p421
ssS'IHC_04'
p422
(dp423
I1
S'MD589-IHC4-2015.07.30-21.37.21_MD589_1_0010'
p424
sI2
S'MD589-IHC4-2015.07.30-21.37.21_MD589_2_0011'
p425
sI3
S'MD589-IHC4-2015.07.30-21.37.21_MD589_3_0012'
p426
ssS'IHC_03'
p427
(dp428
I1
S'MD589-IHC3-2015.07.30-21.34.34_MD589_1_0007'
p429
sI2
S'MD589-IHC3-2015.07.30-21.34.34_MD589_2_0008'
p430
sI3
S'MD589-IHC3-2015.07.30-21.34.34_MD589_3_0009'
p431
ssS'IHC_02'
p432
(dp433
I1
S'MD589-IHC2-2015.07.30-21.32.04_MD589_1_0004'
p434
sI2
S'MD589-IHC2-2015.07.30-21.32.04_MD589_2_0005'
p435
sI3
S'MD589-IHC2-2015.07.30-21.32.04_MD589_3_0006'
p436
ssS'IHC_01'
p437
(dp438
I1
S'Unknown'
p439
sI2
g439
sI3
g439
ssS'N_58'
p440
(dp441
I1
S'MD589-N58-2015.07.30-20.03.53_MD589_1_0172'
p442
sI2
S'MD589-N58-2015.07.30-20.03.53_MD589_2_0173'
p443
sI3
g6
ssS'N_59'
p444
(dp445
I1
S'MD589-N59-2015.07.30-20.07.00_MD589_1_0175'
p446
sI2
S'MD589-N59-2015.07.30-20.07.00_MD589_2_0176'
p447
sI3
S'MD589-N59-2015.07.30-20.07.00_MD589_3_0177'
p448
ssS'N_52'
p449
(dp450
I1
S'MD589-N52-2015.07.30-19.33.44_MD589_1_0154'
p451
sI2
S'MD589-N52-2015.07.30-19.33.44_MD589_2_0155'
p452
sI3
S'MD589-N52-2015.07.30-19.33.44_MD589_3_0156'
p453
ssS'N_53'
p454
(dp455
I1
S'MD589-N53-2015.07.30-19.39.11_MD589_1_0157'
p456
sI2
S'MD589-N53-2015.07.30-19.39.11_MD589_2_0158'
p457
sI3
S'MD589-N53-2015.07.30-19.39.11_MD589_3_0159'
p458
ssS'N_50'
p459
(dp460
I1
S'MD589-N50-2015.07.30-19.24.13_MD589_1_0148'
p461
sI2
S'MD589-N50-2015.07.30-19.24.13_MD589_2_0149'
p462
sI3
g6
ssS'N_51'
p463
(dp464
I1
S'MD589-N51-2015.07.30-19.28.17_MD589_1_0151'
p465
sI2
S'MD589-N51-2015.07.30-19.28.17_MD589_2_0152'
p466
sI3
S'MD589-N51-2015.07.30-19.28.17_MD589_3_0153'
p467
ssS'N_56'
p468
(dp469
I1
S'MD589-N56-2015.07.30-19.54.42_MD589_1_0166'
p470
sI2
S'MD589-N56-2015.07.30-19.54.42_MD589_2_0167'
p471
sI3
S'MD589-N56-2015.07.30-19.54.42_MD589_3_0168'
p472
ssS'N_57'
p473
(dp474
I1
S'MD589-N57-2015.07.30-19.59.14_MD589_1_0169'
p475
sI2
S'MD589-N57-2015.07.30-19.59.14_MD589_2_0170'
p476
sI3
S'MD589-N57-2015.07.30-19.59.14_MD589_3_0171'
p477
ssS'N_54'
p478
(dp479
I1
S'MD589-N54-2015.07.30-19.44.32_MD589_1_0160'
p480
sI2
S'MD589-N54-2015.07.30-19.44.32_MD589_2_0161'
p481
sI3
S'MD589-N54-2015.07.30-19.44.32_MD589_3_0162'
p482
ssS'N_55'
p483
(dp484
I1
S'MD589-N55-2015.07.30-19.49.42_MD589_1_0163'
p485
sI2
S'MD589-N55-2015.07.30-19.49.42_MD589_2_0164'
p486
sI3
S'MD589-N55-2015.07.30-19.49.42_MD589_3_0165'
p487
ssS'IHC_78'
p488
(dp489
I1
S'MD589-IHC78-2015.07.31-02.40.28_MD589_1_0232'
p490
sI2
S'MD589-IHC78-2015.07.31-02.40.28_MD589_2_0233'
p491
sI3
S'MD589-IHC78-2015.07.31-02.40.28_MD589_3_0234'
p492
ssS'IHC_79'
p493
(dp494
I1
S'MD589-IHC79-2015.07.31-02.43.44_MD589_1_0235'
p495
sI2
S'MD589-IHC79-2015.07.31-02.43.44_MD589_2_0236'
p496
sI3
S'MD589-IHC79-2015.07.31-02.43.44_MD589_3_0237'
p497
ssS'IHC_72'
p498
(dp499
I1
S'MD589-IHC72-2015.07.31-02.18.55_MD589_1_0214'
p500
sI2
S'MD589-IHC72-2015.07.31-02.18.55_MD589_2_0215'
p501
sI3
S'MD589-IHC72-2015.07.31-02.18.55_MD589_3_0216'
p502
ssS'IHC_73'
p503
(dp504
I1
S'MD589-IHC73-2015.07.31-02.22.43_MD589_1_0217'
p505
sI2
S'MD589-IHC73-2015.07.31-02.22.43_MD589_2_0218'
p506
sI3
S'MD589-IHC73-2015.07.31-02.22.43_MD589_3_0219'
p507
ssS'IHC_70'
p508
(dp509
I1
S'MD589-IHC70-2015.07.31-02.11.06_MD589_1_0208'
p510
sI2
S'MD589-IHC70-2015.07.31-02.11.06_MD589_2_0209'
p511
sI3
S'MD589-IHC70-2015.07.31-02.11.06_MD589_3_0210'
p512
ssS'IHC_71'
p513
(dp514
I1
S'MD589-IHC71-2015.07.31-02.15.02_MD589_1_0211'
p515
sI2
S'MD589-IHC71-2015.07.31-02.15.02_MD589_2_0212'
p516
sI3
S'MD589-IHC71-2015.07.31-02.15.02_MD589_3_0213'
p517
ssS'IHC_76'
p518
(dp519
I1
S'MD589-IHC76-2015.07.31-02.33.49_MD589_1_0226'
p520
sI2
S'MD589-IHC76-2015.07.31-02.33.49_MD589_2_0227'
p521
sI3
S'MD589-IHC76-2015.07.31-02.33.49_MD589_3_0228'
p522
ssS'IHC_77'
p523
(dp524
I1
S'MD589-IHC77-2015.07.31-02.37.12_MD589_1_0229'
p525
sI2
S'MD589-IHC77-2015.07.31-02.37.12_MD589_2_0230'
p526
sI3
S'MD589-IHC77-2015.07.31-02.37.12_MD589_3_0231'
p527
ssS'IHC_74'
p528
(dp529
I1
S'MD589-IHC74-2015.07.31-02.26.27_MD589_1_0220'
p530
sI2
S'MD589-IHC74-2015.07.31-02.26.27_MD589_2_0221'
p531
sI3
S'MD589-IHC74-2015.07.31-02.26.27_MD589_3_0222'
p532
ssS'IHC_75'
p533
(dp534
I1
S'MD589-IHC75-2015.07.31-02.30.14_MD589_1_0223'
p535
sI2
S'MD589-IHC75-2015.07.31-02.30.14_MD589_2_0224'
p536
sI3
S'MD589-IHC75-2015.07.31-02.30.14_MD589_3_0225'
p537
ssS'IHC_82'
p538
(dp539
I1
S'MD589-IHC82-2015.07.31-02.52.24_MD589_1_0244'
p540
sI2
S'MD589-IHC82-2015.07.31-02.52.24_MD589_2_0245'
p541
sI3
g6
ssS'IHC_81'
p542
(dp543
I1
S'MD589-IHC81-2015.07.31-02.49.49_MD589_1_0241'
p544
sI2
S'MD589-IHC81-2015.07.31-02.49.49_MD589_2_0242'
p545
sI3
S'MD589-IHC81-2015.07.31-02.49.49_MD589_3_0243'
p546
ssS'IHC_80'
p547
(dp548
I1
S'MD589-IHC80-2015.07.31-02.46.49_MD589_1_0238'
p549
sI2
S'MD589-IHC80-2015.07.31-02.46.49_MD589_2_0239'
p550
sI3
S'MD589-IHC80-2015.07.31-02.46.49_MD589_3_0240'
p551
ssS'IHC_69'
p552
(dp553
I1
S'MD589-IHC69-2015.07.31-02.07.15_MD589_1_0205'
p554
sI2
S'MD589-IHC69-2015.07.31-02.07.15_MD589_2_0206'
p555
sI3
S'MD589-IHC69-2015.07.31-02.07.15_MD589_3_0207'
p556
ssS'IHC_68'
p557
(dp558
I1
S'MD589-IHC68-2015.07.31-02.03.18_MD589_1_0202'
p559
sI2
S'MD589-IHC68-2015.07.31-02.03.18_MD589_2_0203'
p560
sI3
S'MD589-IHC68-2015.07.31-02.03.18_MD589_3_0204'
p561
ssS'IHC_61'
p562
(dp563
I1
S'MD589-IHC61-2015.07.31-01.35.17_MD589_1_0181'
p564
sI2
S'MD589-IHC61-2015.07.31-01.35.17_MD589_2_0182'
p565
sI3
S'MD589-IHC61-2015.07.31-01.35.17_MD589_3_0183'
p566
ssS'IHC_60'
p567
(dp568
I1
S'MD589-IHC60-2015.07.31-01.31.11_MD589_1_0178'
p569
sI2
S'MD589-IHC60-2015.07.31-01.31.11_MD589_2_0179'
p570
sI3
S'MD589-IHC60-2015.07.31-01.31.11_MD589_3_0180'
p571
ssS'IHC_63'
p572
(dp573
I1
S'MD589-IHC63-2015.07.31-01.43.31_MD589_1_0187'
p574
sI2
S'MD589-IHC63-2015.07.31-01.43.31_MD589_2_0188'
p575
sI3
S'MD589-IHC63-2015.07.31-01.43.31_MD589_3_0189'
p576
ssS'IHC_62'
p577
(dp578
I1
S'MD589-IHC62-2015.07.31-01.39.26_MD589_1_0184'
p579
sI2
S'MD589-IHC62-2015.07.31-01.39.26_MD589_2_0185'
p580
sI3
S'MD589-IHC62-2015.07.31-01.39.26_MD589_3_0186'
p581
ssS'IHC_65'
p582
(dp583
I1
S'MD589-IHC65-2015.07.31-01.51.22_MD589_1_0193'
p584
sI2
S'MD589-IHC65-2015.07.31-01.51.22_MD589_2_0194'
p585
sI3
S'MD589-IHC65-2015.07.31-01.51.22_MD589_3_0195'
p586
ssS'IHC_64'
p587
(dp588
I1
S'MD589-IHC64-2015.07.31-01.47.28_MD589_1_0190'
p589
sI2
S'MD589-IHC64-2015.07.31-01.47.28_MD589_2_0191'
p590
sI3
S'MD589-IHC64-2015.07.31-01.47.28_MD589_3_0192'
p591
ssS'IHC_67'
p592
(dp593
I1
S'MD589-IHC67-2015.07.31-01.59.20_MD589_1_0199'
p594
sI2
S'MD589-IHC67-2015.07.31-01.59.20_MD589_2_0200'
p595
sI3
S'MD589-IHC67-2015.07.31-01.59.20_MD589_3_0201'
p596
ssS'IHC_66'
p597
(dp598
I1
S'MD589-IHC66-2015.07.31-01.55.14_MD589_1_0196'
p599
sI2
S'MD589-IHC66-2015.07.31-01.55.14_MD589_2_0197'
p600
sI3
S'MD589-IHC66-2015.07.31-01.55.14_MD589_3_0198'
p601
ssS'IHC_54'
p602
(dp603
I1
S'MD589-IHC54-2015.07.31-01.03.25_MD589_1_0160'
p604
sI2
S'MD589-IHC54-2015.07.31-01.03.25_MD589_2_0161'
p605
sI3
S'MD589-IHC54-2015.07.31-01.03.25_MD589_3_0162'
p606
ssS'IHC_55'
p607
(dp608
I1
S'MD589-IHC55-2015.07.31-01.08.44_MD589_1_0163'
p609
sI2
S'MD589-IHC55-2015.07.31-01.08.44_MD589_2_0164'
p610
sI3
S'MD589-IHC55-2015.07.31-01.08.44_MD589_3_0165'
p611
ssS'IHC_56'
p612
(dp613
I1
S'MD589-IHC56-2015.07.31-01.13.31_MD589_1_0166'
p614
sI2
S'MD589-IHC56-2015.07.31-01.13.31_MD589_2_0167'
p615
sI3
S'MD589-IHC56-2015.07.31-01.13.31_MD589_3_0168'
p616
ssS'IHC_57'
p617
(dp618
I1
S'MD589-IHC57-2015.07.31-01.18.16_MD589_1_0169'
p619
sI2
S'MD589-IHC57-2015.07.31-01.18.16_MD589_2_0170'
p620
sI3
S'MD589-IHC57-2015.07.31-01.18.16_MD589_3_0171'
p621
ssS'IHC_50'
p622
(dp623
I1
S'MD589-IHC50-2015.07.31-00.43.12_MD589_1_0148'
p624
sI2
S'MD589-IHC50-2015.07.31-00.43.12_MD589_2_0149'
p625
sI3
g6
ssS'IHC_51'
p626
(dp627
I1
S'MD589-IHC51-2015.07.31-00.47.11_MD589_1_0151'
p628
sI2
S'MD589-IHC51-2015.07.31-00.47.11_MD589_2_0152'
p629
sI3
S'MD589-IHC51-2015.07.31-00.47.11_MD589_3_0153'
p630
ssS'IHC_52'
p631
(dp632
I1
S'MD589-IHC52-2015.07.31-00.52.41_MD589_1_0154'
p633
sI2
S'MD589-IHC52-2015.07.31-00.52.41_MD589_2_0155'
p634
sI3
S'MD589-IHC52-2015.07.31-00.52.41_MD589_3_0156'
p635
ssS'IHC_53'
p636
(dp637
I1
S'MD589-IHC53-2015.07.31-00.58.06_MD589_1_0157'
p638
sI2
S'MD589-IHC53-2015.07.31-00.58.06_MD589_2_0158'
p639
sI3
S'MD589-IHC53-2015.07.31-00.58.06_MD589_3_0159'
p640
ssS'IHC_58'
p641
(dp642
I1
S'MD589-IHC58-2015.07.31-01.22.39_MD589_1_0172'
p643
sI2
S'MD589-IHC58-2015.07.31-01.22.39_MD589_2_0173'
p644
sI3
S'MD589-IHC58-2015.07.31-01.22.39_MD589_3_0174'
p645
ssS'IHC_59'
p646
(dp647
I1
S'MD589-IHC59-2015.07.31-01.26.55_MD589_1_0175'
p648
sI2
S'MD589-IHC59-2015.07.31-01.26.55_MD589_2_0176'
p649
sI3
S'MD589-IHC59-2015.07.31-01.26.55_MD589_3_0177'
p650
ssS'N_45'
p651
(dp652
I1
S'MD589-N45-2015.07.30-19.04.31_MD589_1_0133'
p653
sI2
S'MD589-N45-2015.07.30-19.04.31_MD589_2_0134'
p654
sI3
g6
ssS'N_44'
p655
(dp656
I1
S'MD589-N44-2015.07.30-19.00.35_MD589_1_0130'
p657
sI2
S'MD589-N44-2015.07.30-19.00.35_MD589_2_0131'
p658
sI3
g6
ssS'N_47'
p659
(dp660
I1
S'MD589-N47-2015.07.30-19.12.19_MD589_1_0139'
p661
sI2
S'MD589-N47-2015.07.30-19.12.19_MD589_2_0140'
p662
sI3
g6
ssS'N_46'
p663
(dp664
I1
S'MD589-N46-2015.07.30-19.08.29_MD589_1_0136'
p665
sI2
S'MD589-N46-2015.07.30-19.08.29_MD589_2_0137'
p666
sI3
g6
ssS'N_41'
p667
(dp668
I1
S'MD589-N41-2015.07.30-18.48.44_MD589_1_0121'
p669
sI2
S'MD589-N41-2015.07.30-18.48.44_MD589_2_0122'
p670
sI3
g6
ssS'N_40'
p671
(dp672
I1
S'MD589-N40-2015.07.30-18.44.48_MD589_1_0118'
p673
sI2
S'MD589-N40-2015.07.30-18.44.48_MD589_2_0119'
p674
sI3
g6
ssS'N_43'
p675
(dp676
I1
S'MD589-N43-2015.07.30-18.56.33_MD589_1_0127'
p677
sI2
S'MD589-N43-2015.07.30-18.56.33_MD589_2_0128'
p678
sI3
g6
ssS'N_42'
p679
(dp680
I1
S'MD589-N42-2015.07.30-18.52.37_MD589_1_0124'
p681
sI2
S'MD589-N42-2015.07.30-18.52.37_MD589_2_0125'
p682
sI3
g6
ssS'N_49'
p683
(dp684
I1
S'MD589-N49-2015.07.30-19.20.15_MD589_1_0145'
p685
sI2
S'MD589-N49-2015.07.30-19.20.15_MD589_2_0146'
p686
sI3
g6
ssS'N_48'
p687
(dp688
I1
S'MD589-N48-2015.07.30-19.16.21_MD589_1_0142'
p689
sI2
S'MD589-N48-2015.07.30-19.16.21_MD589_2_0143'
p690
sI3
g6
ssS'IHC_43'
p691
(dp692
I1
S'MD589-IHC43-2015.07.31-00.14.56_MD589_1_0127'
p693
sI2
S'MD589-IHC43-2015.07.31-00.14.56_MD589_2_0128'
p694
sI3
g6
ssS'IHC_42'
p695
(dp696
I1
S'MD589-IHC42-2015.07.31-00.10.45_MD589_1_0124'
p697
sI2
S'MD589-IHC42-2015.07.31-00.10.45_MD589_2_0125'
p698
sI3
g6
ssS'IHC_41'
p699
(dp700
I1
S'MD589-IHC41-2015.07.31-00.06.24_MD589_1_0121'
p701
sI2
S'MD589-IHC41-2015.07.31-00.06.24_MD589_2_0122'
p702
sI3
g6
ssS'IHC_40'
p703
(dp704
I1
S'MD589-IHC40-2015.07.31-00.02.21_MD589_1_0118'
p705
sI2
S'MD589-IHC40-2015.07.31-00.02.21_MD589_2_0119'
p706
sI3
g6
ssS'IHC_47'
p707
(dp708
I1
S'MD589-IHC47-2015.07.31-00.31.08_MD589_1_0139'
p709
sI2
S'MD589-IHC47-2015.07.31-00.31.08_MD589_2_0140'
p710
sI3
g6
ssS'IHC_46'
p711
(dp712
I1
S'MD589-IHC46-2015.07.31-00.27.07_MD589_1_0136'
p713
sI2
S'MD589-IHC46-2015.07.31-00.27.07_MD589_2_0137'
p714
sI3
g6
ssS'IHC_45'
p715
(dp716
I1
S'MD589-IHC45-2015.07.31-00.23.02_MD589_1_0133'
p717
sI2
S'MD589-IHC45-2015.07.31-00.23.02_MD589_2_0134'
p718
sI3
g6
ssS'IHC_44'
p719
(dp720
I1
S'MD589-IHC44-2015.07.31-00.18.50_MD589_1_0130'
p721
sI2
S'MD589-IHC44-2015.07.31-00.18.50_MD589_2_0131'
p722
sI3
g6
ssS'IHC_49'
p723
(dp724
I1
S'MD589-IHC49-2015.07.31-00.39.15_MD589_1_0145'
p725
sI2
S'MD589-IHC49-2015.07.31-00.39.15_MD589_2_0146'
p726
sI3
g6
ssS'IHC_48'
p727
(dp728
I1
S'MD589-IHC48-2015.07.31-00.35.14_MD589_1_0142'
p729
sI2
S'MD589-IHC48-2015.07.31-00.35.14_MD589_2_0143'
p730
sI3
g6
ssS'N_30'
p731
(dp732
I1
S'MD589-N30-2015.07.30-18.03.11_MD589_1_0088'
p733
sI2
S'MD589-N30-2015.07.30-18.03.11_MD589_2_0089'
p734
sI3
S'MD589-N30-2015.07.30-18.03.11_MD589_3_0090'
p735
ssS'N_31'
p736
(dp737
I1
S'MD589-N31-2015.07.30-18.08.35_MD589_1_0091'
p738
sI2
S'MD589-N31-2015.07.30-18.08.35_MD589_2_0092'
p739
sI3
g6
ssS'N_32'
p740
(dp741
I1
S'MD589-N32-2015.07.30-18.12.36_MD589_1_0094'
p742
sI2
S'MD589-N32-2015.07.30-18.12.36_MD589_2_0095'
p743
sI3
g6
ssS'N_33'
p744
(dp745
I1
S'MD589-N33-2015.07.30-18.16.40_MD589_1_0097'
p746
sI2
S'MD589-N33-2015.07.30-18.16.40_MD589_2_0098'
p747
sI3
g6
ssS'N_34'
p748
(dp749
I1
S'MD589-N34-2015.07.30-18.20.43_MD589_1_0100'
p750
sI2
S'MD589-N34-2015.07.30-18.20.43_MD589_2_0101'
p751
sI3
g6
ssS'N_35'
p752
(dp753
I1
S'MD589-N35-2015.07.30-18.24.53_MD589_1_0103'
p754
sI2
S'MD589-N35-2015.07.30-18.24.53_MD589_2_0104'
p755
sI3
g6
ssS'N_36'
p756
(dp757
I1
S'MD589-N36-2015.07.30-18.28.52_MD589_1_0106'
p758
sI2
S'MD589-N36-2015.07.30-18.28.52_MD589_2_0107'
p759
sI3
g6
ssS'N_37'
p760
(dp761
I1
S'MD589-N37-2015.07.30-18.32.51_MD589_1_0109'
p762
sI2
S'MD589-N37-2015.07.30-18.32.51_MD589_2_0110'
p763
sI3
g6
ssS'N_38'
p764
(dp765
I1
S'MD589-N38-2015.07.30-18.36.50_MD589_1_0112'
p766
sI2
S'MD589-N38-2015.07.30-18.36.50_MD589_2_0113'
p767
sI3
g6
ssS'N_39'
p768
(dp769
I1
S'MD589-N39-2015.07.30-18.40.43_MD589_1_0115'
p770
sI2
S'MD589-N39-2015.07.30-18.40.43_MD589_2_0116'
p771
sI3
g6
ss.