(dp1
S'IHC_36'
p2
(dp3
I1
S'MD589-IHC36-2015.07.30-23.46.36_MD589_1_0106'
p4
sI2
S'MD589-IHC36-2015.07.30-23.46.36_MD589_2_0107'
p5
sI3
S'Nonexisting'
p6
ssS'IHC_37'
p7
(dp8
I1
S'MD589-IHC37-2015.07.30-23.50.39_MD589_1_0109'
p9
sI2
S'MD589-IHC37-2015.07.30-23.50.39_MD589_2_0110'
p10
sI3
g6
ssS'IHC_34'
p11
(dp12
I1
S'MD589-IHC34-2015.07.30-23.38.35_MD589_1_0100'
p13
sI2
S'MD589-IHC34-2015.07.30-23.38.35_MD589_2_0101'
p14
sI3
g6
ssS'IHC_35'
p15
(dp16
I1
S'MD589-IHC35-2015.07.30-23.42.32_MD589_1_0103'
p17
sI2
S'MD589-IHC35-2015.07.30-23.42.32_MD589_2_0104'
p18
sI3
g6
ssS'IHC_32'
p19
(dp20
I1
S'MD589-IHC32-2015.07.30-23.30.34_MD589_1_0094'
p21
sI2
S'MD589-IHC32-2015.07.30-23.30.34_MD589_2_0095'
p22
sI3
g6
ssS'IHC_33'
p23
(dp24
I1
S'MD589-IHC33-2015.07.30-23.34.35_MD589_1_0097'
p25
sI2
S'MD589-IHC33-2015.07.30-23.34.35_MD589_2_0098'
p26
sI3
g6
ssS'IHC_30'
p27
(dp28
I1
S'MD589-IHC30-2015.07.30-23.20.46_MD589_1_0088'
p29
sI2
S'MD589-IHC30-2015.07.30-23.20.46_MD589_2_0089'
p30
sI3
S'MD589-IHC30-2015.07.30-23.20.46_MD589_3_0090'
p31
ssS'IHC_31'
p32
(dp33
I1
S'MD589-IHC31-2015.07.30-23.26.22_MD589_1_0091'
p34
sI2
S'MD589-IHC31-2015.07.30-23.26.22_MD589_2_0092'
p35
sI3
g6
ssS'IHC_38'
p36
(dp37
I1
S'MD589-IHC38-2015.07.30-23.54.24_MD589_1_0112'
p38
sI2
S'MD589-IHC38-2015.07.30-23.54.24_MD589_2_0113'
p39
sI3
g6
ssS'IHC_39'
p40
(dp41
I1
S'MD589-IHC39-2015.07.30-23.58.27_MD589_1_0115'
p42
sI2
S'MD589-IHC39-2015.07.30-23.58.27_MD589_2_0116'
p43
sI3
g6
ssS'N_23'
p44
(dp45
I1
S'MD589-N23-2015.07.30-17.31.29_MD589_1_0067'
p46
sI2
S'MD589-N23-2015.07.30-17.31.29_MD589_2_0068'
p47
sI3
S'MD589-N23-2015.07.30-17.31.29_MD589_3_0069'
p48
ssS'N_22'
p49
(dp50
I1
S'MD589-N22-2015.07.30-17.27.26_MD589_1_0064'
p51
sI2
S'MD589-N22-2015.07.30-17.27.26_MD589_2_0065'
p52
sI3
S'MD589-N22-2015.07.30-17.27.26_MD589_3_0066'
p53
ssS'N_21'
p54
(dp55
I1
S'MD589-N21-2015.07.30-17.23.23_MD589_1_0061'
p56
sI2
S'MD589-N21-2015.07.30-17.23.23_MD589_2_0062'
p57
sI3
S'MD589-N21-2015.07.30-17.23.23_MD589_3_0063'
p58
ssS'N_20'
p59
(dp60
I1
S'MD589-N20-2015.07.30-17.19.14_MD589_1_0058'
p61
sI2
S'MD589-N20-2015.07.30-17.19.14_MD589_2_0059'
p62
sI3
S'MD589-N20-2015.07.30-17.19.14_MD589_3_0060'
p63
ssS'N_27'
p64
(dp65
I1
S'MD589-N27-2015.07.30-17.49.06_MD589_1_0079'
p66
sI2
S'MD589-N27-2015.07.30-17.49.06_MD589_2_0080'
p67
sI3
S'MD589-N27-2015.07.30-17.49.06_MD589_3_0081'
p68
ssS'N_26'
p69
(dp70
I1
S'MD589-N26-2015.07.30-17.44.37_MD589_1_0076'
p71
sI2
S'MD589-N26-2015.07.30-17.44.37_MD589_2_0077'
p72
sI3
S'MD589-N26-2015.07.30-17.44.37_MD589_3_0078'
p73
ssS'N_25'
p74
(dp75
I1
S'MD589-N25-2015.07.30-17.40.16_MD589_1_0073'
p76
sI2
S'MD589-N25-2015.07.30-17.40.16_MD589_2_0074'
p77
sI3
S'MD589-N25-2015.07.30-17.40.16_MD589_3_0075'
p78
ssS'N_24'
p79
(dp80
I1
S'MD589-N24-2015.07.30-17.35.51_MD589_1_0070'
p81
sI2
S'MD589-N24-2015.07.30-17.35.51_MD589_2_0071'
p82
sI3
S'MD589-N24-2015.07.30-17.35.51_MD589_3_0072'
p83
ssS'N_29'
p84
(dp85
I1
S'MD589-N29-2015.07.30-17.58.29_MD589_1_0085'
p86
sI2
S'MD589-N29-2015.07.30-17.58.29_MD589_2_0086'
p87
sI3
S'MD589-N29-2015.07.30-17.58.29_MD589_3_0087'
p88
ssS'N_28'
p89
(dp90
I1
S'MD589-N28-2015.07.30-17.53.43_MD589_1_0082'
p91
sI2
S'MD589-N28-2015.07.30-17.53.43_MD589_2_0083'
p92
sI3
S'MD589-N28-2015.07.30-17.53.43_MD589_3_0084'
p93
ssS'N_81'
p94
(dp95
I1
S'MD589-N81-2015.07.30-21.26.03_MD589_1_0241'
p96
sI2
S'MD589-N81-2015.07.30-21.26.03_MD589_2_0242'
p97
sI3
S'MD589-N81-2015.07.30-21.26.03_MD589_3_0243'
p98
ssS'N_80'
p99
(dp100
I1
S'MD589-N80-2015.07.30-21.22.59_MD589_1_0238'
p101
sI2
S'MD589-N80-2015.07.30-21.22.59_MD589_2_0239'
p102
sI3
S'MD589-N80-2015.07.30-21.22.59_MD589_3_0240'
p103
ssS'N_82'
p104
(dp105
I1
S'MD589-N82-2015.07.30-21.28.40_MD589_1_0244'
p106
sI2
S'MD589-N82-2015.07.30-21.28.40_MD589_2_0245'
p107
sI3
g6
ssS'IHC_25'
p108
(dp109
I1
S'MD589-IHC25-2015.07.30-22.57.23_MD589_1_0073'
p110
sI2
S'MD589-IHC25-2015.07.30-22.57.23_MD589_2_0074'
p111
sI3
S'MD589-IHC25-2015.07.30-22.57.23_MD589_3_0075'
p112
ssS'IHC_24'
p113
(dp114
I1
S'MD589-IHC24-2015.07.30-22.52.55_MD589_1_0070'
p115
sI2
S'MD589-IHC24-2015.07.30-22.52.55_MD589_2_0071'
p116
sI3
S'MD589-IHC24-2015.07.30-22.52.55_MD589_3_0072'
p117
ssS'IHC_27'
p118
(dp119
I1
S'MD589-IHC27-2015.07.30-23.06.26_MD589_1_0079'
p120
sI2
S'MD589-IHC27-2015.07.30-23.06.26_MD589_2_0080'
p121
sI3
S'MD589-IHC27-2015.07.30-23.06.26_MD589_3_0081'
p122
ssS'IHC_26'
p123
(dp124
I1
S'MD589-IHC26-2015.07.30-23.01.56_MD589_1_0076'
p125
sI2
S'MD589-IHC26-2015.07.30-23.01.56_MD589_2_0077'
p126
sI3
S'MD589-IHC26-2015.07.30-23.01.56_MD589_3_0078'
p127
ssS'IHC_21'
p128
(dp129
I1
S'MD589-IHC21-2015.07.30-22.40.00_MD589_1_0061'
p130
sI2
S'MD589-IHC21-2015.07.30-22.40.00_MD589_2_0062'
p131
sI3
S'MD589-IHC21-2015.07.30-22.40.00_MD589_3_0063'
p132
ssS'IHC_20'
p133
(dp134
I1
S'MD589-IHC20-2015.07.30-22.36.03_MD589_1_0058'
p135
sI2
S'MD589-IHC20-2015.07.30-22.36.03_MD589_2_0059'
p136
sI3
S'MD589-IHC20-2015.07.30-22.36.03_MD589_3_0060'
p137
ssS'IHC_23'
p138
(dp139
I1
S'MD589-IHC23-2015.07.30-22.48.41_MD589_1_0067'
p140
sI2
S'MD589-IHC23-2015.07.30-22.48.41_MD589_2_0068'
p141
sI3
S'MD589-IHC23-2015.07.30-22.48.41_MD589_3_0069'
p142
ssS'IHC_22'
p143
(dp144
I1
S'MD589-IHC22-2015.07.30-22.44.25_MD589_1_0064'
p145
sI2
S'MD589-IHC22-2015.07.30-22.44.25_MD589_2_0065'
p146
sI3
S'MD589-IHC22-2015.07.30-22.44.25_MD589_3_0066'
p147
ssS'IHC_29'
p148
(dp149
I1
S'MD589-IHC29-2015.07.30-23.16.01_MD589_1_0085'
p150
sI2
S'MD589-IHC29-2015.07.30-23.16.01_MD589_2_0086'
p151
sI3
S'MD589-IHC29-2015.07.30-23.16.01_MD589_3_0087'
p152
ssS'IHC_28'
p153
(dp154
I1
S'MD589-IHC28-2015.07.30-23.11.15_MD589_1_0082'
p155
sI2
S'MD589-IHC28-2015.07.30-23.11.15_MD589_2_0083'
p156
sI3
S'MD589-IHC28-2015.07.30-23.11.15_MD589_3_0084'
p157
ssS'N_18'
p158
(dp159
I1
S'MD589-N18-2015.07.30-17.11.24_MD589_1_0052'
p160
sI2
S'MD589-N18-2015.07.30-17.11.24_MD589_2_0053'
p161
sI3
S'MD589-N18-2015.07.30-17.11.24_MD589_3_0054'
p162
ssS'N_19'
p163
(dp164
I1
S'MD589-N19-2015.07.30-17.15.15_MD589_1_0055'
p165
sI2
S'MD589-N19-2015.07.30-17.15.15_MD589_2_0056'
p166
sI3
S'MD589-N19-2015.07.30-17.15.15_MD589_3_0057'
p167
ssS'N_16'
p168
(dp169
I1
S'MD589-N16-2015.07.30-17.03.43_MD589_1_0046'
p170
sI2
S'MD589-N16-2015.07.30-17.03.43_MD589_2_0047'
p171
sI3
S'MD589-N16-2015.07.30-17.03.43_MD589_3_0048'
p172
ssS'N_17'
p173
(dp174
I1
S'MD589-N17-2015.07.30-17.07.32_MD589_1_0049'
p175
sI2
S'MD589-N17-2015.07.30-17.07.32_MD589_2_0050'
p176
sI3
S'MD589-N17-2015.07.30-17.07.32_MD589_3_0051'
p177
ssS'N_14'
p178
(dp179
I1
S'MD589-N14-2015.07.30-16.55.58_MD589_1_0040'
p180
sI2
S'MD589-N14-2015.07.30-16.55.58_MD589_2_0041'
p181
sI3
S'MD589-N14-2015.07.30-16.55.58_MD589_3_0042'
p182
ssS'N_15'
p183
(dp184
I1
S'MD589-N15-2015.07.30-16.59.48_MD589_1_0043'
p185
sI2
S'MD589-N15-2015.07.30-16.59.48_MD589_2_0044'
p186
sI3
S'MD589-N15-2015.07.30-16.59.48_MD589_3_0045'
p187
ssS'N_12'
p188
(dp189
I1
S'MD589-N12-2015.08.04-08.43.30_MD589_1_0034'
p190
sI2
S'MD589-N12-2015.08.04-08.43.30_MD589_2_0035'
p191
sI3
S'MD589-N12-2015.08.04-08.43.30_MD589_3_0036'
p192
ssS'N_10'
p193
(dp194
I1
S'MD589-N10-2015.07.30-16.48.18_MD589_1_0028'
p195
sI2
S'MD589-N10-2015.07.30-16.48.18_MD589_2_0029'
p196
sI3
S'MD589-N10-2015.07.30-16.48.18_MD589_3_0030'
p197
ssS'N_11'
p198
(dp199
I1
S'MD589-N11-2015.07.30-16.52.12_MD589_1_0031'
p200
sI2
S'MD589-N11-2015.07.30-16.52.12_MD589_2_0032'
p201
sI3
S'MD589-N11-2015.07.30-16.52.12_MD589_3_0033'
p202
ssS'N_78'
p203
(dp204
I1
S'MD589-N78-2015.07.30-21.16.39_MD589_1_0232'
p205
sI2
S'MD589-N78-2015.07.30-21.16.39_MD589_2_0233'
p206
sI3
S'MD589-N78-2015.07.30-21.16.39_MD589_3_0234'
p207
ssS'N_79'
p208
(dp209
I1
S'MD589-N79-2015.07.30-21.19.47_MD589_1_0235'
p210
sI2
S'MD589-N79-2015.07.30-21.19.47_MD589_2_0236'
p211
sI3
S'MD589-N79-2015.07.30-21.19.47_MD589_3_0237'
p212
ssS'N_74'
p213
(dp214
I1
S'MD589-N74-2015.07.30-21.06.16_MD589_1_0220'
p215
sI2
S'MD589-N74-2015.07.30-21.06.16_MD589_2_0221'
p216
sI3
S'MD589-N74-2015.07.30-21.06.16_MD589_3_0222'
p217
ssS'N_75'
p218
(dp219
I1
S'MD589-N75-2015.07.30-21.09.51_MD589_1_0223'
p220
sI2
S'MD589-N75-2015.07.30-21.09.51_MD589_2_0224'
p221
sI3
S'MD589-N75-2015.07.30-21.09.51_MD589_3_0225'
p222
ssS'N_76'
p223
(dp224
I1
S'MD589-N76-2015.08.04-08.40.03_MD589_1_0226'
p225
sI2
S'MD589-N76-2015.08.04-08.40.03_MD589_2_0227'
p226
sI3
S'MD589-N76-2015.08.04-08.40.03_MD589_3_0228'
p227
ssS'N_77'
p228
(dp229
I1
S'MD589-N77-2015.07.30-21.13.20_MD589_1_0229'
p230
sI2
S'MD589-N77-2015.07.30-21.13.20_MD589_2_0230'
p231
sI3
S'MD589-N77-2015.07.30-21.13.20_MD589_3_0231'
p232
ssS'N_70'
p233
(dp234
I1
S'MD589-N70-2015.07.30-20.50.53_MD589_1_0208'
p235
sI2
S'MD589-N70-2015.07.30-20.50.53_MD589_2_0209'
p236
sI3
S'MD589-N70-2015.07.30-20.50.53_MD589_3_0210'
p237
ssS'N_71'
p238
(dp239
I1
S'MD589-N71-2015.07.30-20.54.42_MD589_1_0211'
p240
sI2
S'MD589-N71-2015.07.30-20.54.42_MD589_2_0212'
p241
sI3
S'MD589-N71-2015.07.30-20.54.42_MD589_3_0213'
p242
ssS'N_72'
p243
(dp244
I1
S'MD589-N72-2015.07.30-20.58.34_MD589_1_0214'
p245
sI2
S'MD589-N72-2015.07.30-20.58.34_MD589_2_0215'
p246
sI3
S'MD589-N72-2015.07.30-20.58.34_MD589_3_0216'
p247
ssS'N_73'
p248
(dp249
I1
S'MD589-N73-2015.07.30-21.02.25_MD589_1_0217'
p250
sI2
S'MD589-N73-2015.07.30-21.02.25_MD589_2_0218'
p251
sI3
S'MD589-N73-2015.07.30-21.02.25_MD589_3_0219'
p252
ssS'IHC_10'
p253
(dp254
I1
S'MD589-IHC10-2015.07.30-21.57.04_MD589_1_0028'
p255
sI2
S'MD589-IHC10-2015.07.30-21.57.04_MD589_2_0029'
p256
sI3
S'MD589-IHC10-2015.07.30-21.57.04_MD589_3_0030'
p257
ssS'IHC_11'
p258
(dp259
I1
S'MD589-IHC11-2015.07.30-22.00.52_MD589_1_0031'
p260
sI2
S'MD589-IHC11-2015.07.30-22.00.52_MD589_2_0032'
p261
sI3
S'MD589-IHC11-2015.07.30-22.00.52_MD589_3_0033'
p262
ssS'IHC_12'
p263
(dp264
I1
S'MD589-IHC12-2015.07.30-22.04.41_MD589_1_0034'
p265
sI2
S'MD589-IHC12-2015.07.30-22.04.41_MD589_2_0035'
p266
sI3
S'MD589-IHC12-2015.07.30-22.04.41_MD589_3_0036'
p267
ssS'IHC_13'
p268
(dp269
I1
S'MD589-IHC13-2015.07.30-22.08.30_MD589_1_0037'
p270
sI2
S'MD589-IHC13-2015.07.30-22.08.30_MD589_2_0038'
p271
sI3
S'MD589-IHC13-2015.07.30-22.08.30_MD589_3_0039'
p272
ssS'IHC_14'
p273
(dp274
I1
S'MD589-IHC14-2015.07.30-22.12.17_MD589_1_0040'
p275
sI2
S'MD589-IHC14-2015.07.30-22.12.17_MD589_2_0041'
p276
sI3
S'MD589-IHC14-2015.07.30-22.12.17_MD589_3_0042'
p277
ssS'IHC_15'
p278
(dp279
I1
S'MD589-IHC15-2015.07.30-22.16.07_MD589_1_0043'
p280
sI2
S'MD589-IHC15-2015.07.30-22.16.07_MD589_2_0044'
p281
sI3
S'MD589-IHC15-2015.07.30-22.16.07_MD589_3_0045'
p282
ssS'IHC_16'
p283
(dp284
I1
S'MD589-IHC16-2015.07.30-22.20.07_MD589_1_0046'
p285
sI2
S'MD589-IHC16-2015.07.30-22.20.07_MD589_2_0047'
p286
sI3
S'MD589-IHC16-2015.07.30-22.20.07_MD589_3_0048'
p287
ssS'IHC_17'
p288
(dp289
I1
S'MD589-IHC17-2015.07.30-22.23.59_MD589_1_0049'
p290
sI2
S'MD589-IHC17-2015.07.30-22.23.59_MD589_2_0050'
p291
sI3
S'MD589-IHC17-2015.07.30-22.23.59_MD589_3_0051'
p292
ssS'IHC_18'
p293
(dp294
I1
S'MD589-IHC18-2015.07.30-22.27.59_MD589_1_0052'
p295
sI2
S'MD589-IHC18-2015.07.30-22.27.59_MD589_2_0053'
p296
sI3
S'MD589-IHC18-2015.07.30-22.27.59_MD589_3_0054'
p297
ssS'IHC_19'
p298
(dp299
I1
S'MD589-IHC19-2015.07.30-22.32.05_MD589_1_0055'
p300
sI2
S'MD589-IHC19-2015.07.30-22.32.05_MD589_2_0056'
p301
sI3
S'MD589-IHC19-2015.07.30-22.32.05_MD589_3_0057'
p302
ssS'N_09'
p303
(dp304
I1
S'MD589-N9-2015.07.30-16.44.42_MD589_1_0025'
p305
sI2
S'MD589-N9-2015.07.30-16.44.42_MD589_2_0026'
p306
sI3
S'MD589-N9-2015.07.30-16.44.42_MD589_3_0027'
p307
ssS'N_08'
p308
(dp309
I1
S'MD589-N8-2015.07.30-16.41.22_MD589_1_0022'
p310
sI2
S'MD589-N8-2015.07.30-16.41.22_MD589_2_0023'
p311
sI3
S'MD589-N8-2015.07.30-16.41.22_MD589_3_0024'
p312
ssS'N_01'
p313
(dp314
I1
S'MD589-N1-2015.07.30-16.19.59_MD589_1_0001'
p315
sI2
S'MD589-N1-2015.07.30-16.19.59_MD589_2_0002'
p316
sI3
S'MD589-N1-2015.07.30-16.19.59_MD589_3_0003'
p317
ssS'N_03'
p318
(dp319
I1
S'MD589-N3-2015.07.30-16.25.24_MD589_1_0007'
p320
sI2
S'MD589-N3-2015.07.30-16.25.24_MD589_2_0008'
p321
sI3
S'MD589-N3-2015.07.30-16.25.24_MD589_3_0009'
p322
ssS'N_02'
p323
(dp324
I1
S'MD589-N2-2015.07.30-16.22.26_MD589_1_0004'
p325
sI2
S'MD589-N2-2015.07.30-16.22.26_MD589_2_0005'
p326
sI3
S'MD589-N2-2015.07.30-16.22.26_MD589_3_0006'
p327
ssS'N_05'
p328
(dp329
I1
S'MD589-N5-2015.07.30-16.31.30_MD589_1_0013'
p330
sI2
S'MD589-N5-2015.07.30-16.31.30_MD589_2_0014'
p331
sI3
S'MD589-N5-2015.07.30-16.31.30_MD589_3_0015'
p332
ssS'N_04'
p333
(dp334
I1
S'MD589-N4-2015.07.30-16.28.25_MD589_1_0010'
p335
sI2
S'MD589-N4-2015.07.30-16.28.25_MD589_2_0011'
p336
sI3
S'MD589-N4-2015.07.30-16.28.25_MD589_3_0012'
p337
ssS'N_07'
p338
(dp339
I1
S'MD589-N7-2015.07.30-16.38.01_MD589_1_0019'
p340
sI2
S'MD589-N7-2015.07.30-16.38.01_MD589_2_0020'
p341
sI3
S'MD589-N7-2015.07.30-16.38.01_MD589_3_0021'
p342
ssS'N_06'
p343
(dp344
I1
S'MD589-N6-2015.07.30-16.34.46_MD589_1_0016'
p345
sI2
S'MD589-N6-2015.07.30-16.34.46_MD589_2_0017'
p346
sI3
S'MD589-N6-2015.07.30-16.34.46_MD589_3_0018'
p347
ssS'N_69'
p348
(dp349
I1
S'MD589-N69-2015.07.30-20.46.59_MD589_1_0205'
p350
sI2
S'MD589-N69-2015.07.30-20.46.59_MD589_2_0206'
p351
sI3
S'MD589-N69-2015.07.30-20.46.59_MD589_3_0207'
p352
ssS'N_68'
p353
(dp354
I1
S'MD589-N68-2015.07.30-20.43.04_MD589_1_0202'
p355
sI2
S'MD589-N68-2015.07.30-20.43.04_MD589_2_0203'
p356
sI3
S'MD589-N68-2015.07.30-20.43.04_MD589_3_0204'
p357
ssS'N_67'
p358
(dp359
I1
S'MD589-N67-2015.07.30-20.39.13_MD589_1_0199'
p360
sI2
S'MD589-N67-2015.07.30-20.39.13_MD589_2_0200'
p361
sI3
S'MD589-N67-2015.07.30-20.39.13_MD589_3_0201'
p362
ssS'N_66'
p363
(dp364
I1
S'MD589-N66-2015.07.30-20.35.16_MD589_1_0196'
p365
sI2
S'MD589-N66-2015.07.30-20.35.16_MD589_2_0197'
p366
sI3
S'MD589-N66-2015.07.30-20.35.16_MD589_3_0198'
p367
ssS'N_65'
p368
(dp369
I1
S'MD589-N65-2015.07.30-20.31.20_MD589_1_0193'
p370
sI2
S'MD589-N65-2015.07.30-20.31.20_MD589_2_0194'
p371
sI3
S'MD589-N65-2015.07.30-20.31.20_MD589_3_0195'
p372
ssS'N_64'
p373
(dp374
I1
S'MD589-N64-2015.07.30-20.27.19_MD589_1_0190'
p375
sI2
S'MD589-N64-2015.07.30-20.27.19_MD589_2_0191'
p376
sI3
S'MD589-N64-2015.07.30-20.27.19_MD589_3_0192'
p377
ssS'N_63'
p378
(dp379
I1
S'MD589-N63-2015.07.30-20.23.12_MD589_1_0187'
p380
sI2
S'MD589-N63-2015.07.30-20.23.12_MD589_2_0188'
p381
sI3
S'MD589-N63-2015.07.30-20.23.12_MD589_3_0189'
p382
ssS'N_62'
p383
(dp384
I1
S'Placeholder'
p385
sI2
S'MD589-N62-2015.07.30-20.20.08_MD589_1_0184'
p386
sI3
S'MD589-N62-2015.07.30-20.20.08_MD589_2_0185'
p387
ssS'N_61'
p388
(dp389
I1
S'MD589-N61-2015.07.30-20.15.47_MD589_1_0181'
p390
sI2
S'MD589-N61-2015.07.30-20.15.47_MD589_2_0182'
p391
sI3
S'MD589-N61-2015.07.30-20.15.47_MD589_3_0183'
p392
ssS'N_60'
p393
(dp394
I1
S'MD589-N60-2015.07.30-20.11.20_MD589_1_0178'
p395
sI2
S'MD589-N60-2015.07.30-20.11.20_MD589_2_0179'
p396
sI3
S'MD589-N60-2015.07.30-20.11.20_MD589_3_0180'
p397
ssS'IHC_09'
p398
(dp399
I1
S'MD589-IHC9-2015.07.30-21.53.17_MD589_1_0025'
p400
sI2
S'MD589-IHC9-2015.07.30-21.53.17_MD589_2_0026'
p401
sI3
S'MD589-IHC9-2015.07.30-21.53.17_MD589_3_0027'
p402
ssS'IHC_08'
p403
(dp404
I1
S'MD589-IHC8-2015.07.30-21.49.48_MD589_1_0022'
p405
sI2
S'MD589-IHC8-2015.07.30-21.49.48_MD589_2_0023'
p406
sI3
S'MD589-IHC8-2015.07.30-21.49.48_MD589_3_0024'
p407
ssS'IHC_07'
p408
(dp409
I1
S'MD589-IHC7-2015.07.30-21.46.35_MD589_1_0019'
p410
sI2
S'MD589-IHC7-2015.07.30-21.46.35_MD589_2_0020'
p411
sI3
S'MD589-IHC7-2015.07.30-21.46.35_MD589_3_0021'
p412
ssS'IHC_06'
p413
(dp414
I1
S'MD589-IHC6-2015.07.30-21.43.32_MD589_1_0016'
p415
sI2
S'MD589-IHC6-2015.07.30-21.43.32_MD589_2_0017'
p416
sI3
S'MD589-IHC6-2015.07.30-21.43.32_MD589_3_0018'
p417
ssS'IHC_05'
p418
(dp419
I1
S'MD589-IHC5-2015.07.30-21.40.24_MD589_1_0013'
p420
sI2
S'MD589-IHC5-2015.07.30-21.40.24_MD589_2_0014'
p421
sI3
S'MD589-IHC5-2015.07.30-21.40.24_MD589_3_0015'
p422
ssS'IHC_04'
p423
(dp424
I1
S'MD589-IHC4-2015.07.30-21.37.21_MD589_1_0010'
p425
sI2
S'MD589-IHC4-2015.07.30-21.37.21_MD589_2_0011'
p426
sI3
S'MD589-IHC4-2015.07.30-21.37.21_MD589_3_0012'
p427
ssS'IHC_03'
p428
(dp429
I1
S'MD589-IHC3-2015.07.30-21.34.34_MD589_1_0007'
p430
sI2
S'MD589-IHC3-2015.07.30-21.34.34_MD589_2_0008'
p431
sI3
S'MD589-IHC3-2015.07.30-21.34.34_MD589_3_0009'
p432
ssS'IHC_02'
p433
(dp434
I1
S'MD589-IHC2-2015.07.30-21.32.04_MD589_1_0004'
p435
sI2
S'MD589-IHC2-2015.07.30-21.32.04_MD589_2_0005'
p436
sI3
S'MD589-IHC2-2015.07.30-21.32.04_MD589_3_0006'
p437
ssS'IHC_01'
p438
(dp439
I1
S'MD589-IHC1-2015.07.30-21.30.07_MD589_1_0001'
p440
sI2
S'MD589-IHC1-2015.07.30-21.30.07_MD589_2_0002'
p441
sI3
S'MD589-IHC1-2015.07.30-21.30.07_MD589_3_0003'
p442
ssS'N_58'
p443
(dp444
I1
g385
sI2
S'MD589-N58-2015.07.30-20.03.53_MD589_1_0172'
p445
sI3
S'MD589-N58-2015.07.30-20.03.53_MD589_2_0173'
p446
ssS'N_59'
p447
(dp448
I1
S'MD589-N59-2015.07.30-20.07.00_MD589_1_0175'
p449
sI2
S'MD589-N59-2015.07.30-20.07.00_MD589_2_0176'
p450
sI3
S'MD589-N59-2015.07.30-20.07.00_MD589_3_0177'
p451
ssS'N_52'
p452
(dp453
I1
S'MD589-N52-2015.07.30-19.33.44_MD589_1_0154'
p454
sI2
S'MD589-N52-2015.07.30-19.33.44_MD589_2_0155'
p455
sI3
S'MD589-N52-2015.07.30-19.33.44_MD589_3_0156'
p456
ssS'N_53'
p457
(dp458
I1
S'MD589-N53-2015.07.30-19.39.11_MD589_1_0157'
p459
sI2
S'MD589-N53-2015.07.30-19.39.11_MD589_2_0158'
p460
sI3
S'MD589-N53-2015.07.30-19.39.11_MD589_3_0159'
p461
ssS'N_50'
p462
(dp463
I1
S'MD589-N50-2015.07.30-19.24.13_MD589_1_0148'
p464
sI2
S'MD589-N50-2015.07.30-19.24.13_MD589_2_0149'
p465
sI3
g6
ssS'N_51'
p466
(dp467
I1
S'MD589-N51-2015.07.30-19.28.17_MD589_1_0151'
p468
sI2
S'MD589-N51-2015.07.30-19.28.17_MD589_2_0152'
p469
sI3
S'MD589-N51-2015.07.30-19.28.17_MD589_3_0153'
p470
ssS'N_56'
p471
(dp472
I1
S'MD589-N56-2015.07.30-19.54.42_MD589_1_0166'
p473
sI2
S'MD589-N56-2015.07.30-19.54.42_MD589_2_0167'
p474
sI3
S'MD589-N56-2015.07.30-19.54.42_MD589_3_0168'
p475
ssS'N_57'
p476
(dp477
I1
S'MD589-N57-2015.07.30-19.59.14_MD589_1_0169'
p478
sI2
S'MD589-N57-2015.07.30-19.59.14_MD589_2_0170'
p479
sI3
S'MD589-N57-2015.07.30-19.59.14_MD589_3_0171'
p480
ssS'N_54'
p481
(dp482
I1
S'MD589-N54-2015.07.30-19.44.32_MD589_1_0160'
p483
sI2
S'MD589-N54-2015.07.30-19.44.32_MD589_2_0161'
p484
sI3
S'MD589-N54-2015.07.30-19.44.32_MD589_3_0162'
p485
ssS'N_55'
p486
(dp487
I1
S'MD589-N55-2015.07.30-19.49.42_MD589_1_0163'
p488
sI2
S'MD589-N55-2015.07.30-19.49.42_MD589_2_0164'
p489
sI3
S'MD589-N55-2015.07.30-19.49.42_MD589_3_0165'
p490
ssS'IHC_78'
p491
(dp492
I1
S'MD589-IHC78-2015.07.31-02.40.28_MD589_1_0232'
p493
sI2
S'MD589-IHC78-2015.07.31-02.40.28_MD589_2_0233'
p494
sI3
S'MD589-IHC78-2015.07.31-02.40.28_MD589_3_0234'
p495
ssS'IHC_79'
p496
(dp497
I1
S'MD589-IHC79-2015.07.31-02.43.44_MD589_1_0235'
p498
sI2
S'MD589-IHC79-2015.07.31-02.43.44_MD589_2_0236'
p499
sI3
S'MD589-IHC79-2015.07.31-02.43.44_MD589_3_0237'
p500
ssS'IHC_72'
p501
(dp502
I1
S'MD589-IHC72-2015.07.31-02.18.55_MD589_1_0214'
p503
sI2
S'MD589-IHC72-2015.07.31-02.18.55_MD589_2_0215'
p504
sI3
S'MD589-IHC72-2015.07.31-02.18.55_MD589_3_0216'
p505
ssS'IHC_73'
p506
(dp507
I1
S'MD589-IHC73-2015.07.31-02.22.43_MD589_1_0217'
p508
sI2
S'MD589-IHC73-2015.07.31-02.22.43_MD589_2_0218'
p509
sI3
S'MD589-IHC73-2015.07.31-02.22.43_MD589_3_0219'
p510
ssS'IHC_70'
p511
(dp512
I1
S'MD589-IHC70-2015.07.31-02.11.06_MD589_1_0208'
p513
sI2
S'MD589-IHC70-2015.07.31-02.11.06_MD589_2_0209'
p514
sI3
S'MD589-IHC70-2015.07.31-02.11.06_MD589_3_0210'
p515
ssS'IHC_71'
p516
(dp517
I1
S'MD589-IHC71-2015.07.31-02.15.02_MD589_1_0211'
p518
sI2
S'MD589-IHC71-2015.07.31-02.15.02_MD589_2_0212'
p519
sI3
S'MD589-IHC71-2015.07.31-02.15.02_MD589_3_0213'
p520
ssS'IHC_76'
p521
(dp522
I1
S'MD589-IHC76-2015.07.31-02.33.49_MD589_1_0226'
p523
sI2
S'MD589-IHC76-2015.07.31-02.33.49_MD589_2_0227'
p524
sI3
S'MD589-IHC76-2015.07.31-02.33.49_MD589_3_0228'
p525
ssS'IHC_77'
p526
(dp527
I1
S'MD589-IHC77-2015.07.31-02.37.12_MD589_1_0229'
p528
sI2
S'MD589-IHC77-2015.07.31-02.37.12_MD589_2_0230'
p529
sI3
S'MD589-IHC77-2015.07.31-02.37.12_MD589_3_0231'
p530
ssS'IHC_74'
p531
(dp532
I1
S'MD589-IHC74-2015.07.31-02.26.27_MD589_1_0220'
p533
sI2
S'MD589-IHC74-2015.07.31-02.26.27_MD589_2_0221'
p534
sI3
S'MD589-IHC74-2015.07.31-02.26.27_MD589_3_0222'
p535
ssS'IHC_75'
p536
(dp537
I1
S'MD589-IHC75-2015.07.31-02.30.14_MD589_1_0223'
p538
sI2
S'MD589-IHC75-2015.07.31-02.30.14_MD589_2_0224'
p539
sI3
S'MD589-IHC75-2015.07.31-02.30.14_MD589_3_0225'
p540
ssS'IHC_82'
p541
(dp542
I1
S'MD589-IHC82-2015.07.31-02.52.24_MD589_1_0244'
p543
sI2
S'MD589-IHC82-2015.07.31-02.52.24_MD589_2_0245'
p544
sI3
g6
ssS'IHC_81'
p545
(dp546
I1
S'MD589-IHC81-2015.07.31-02.49.49_MD589_1_0241'
p547
sI2
S'MD589-IHC81-2015.07.31-02.49.49_MD589_2_0242'
p548
sI3
S'MD589-IHC81-2015.07.31-02.49.49_MD589_3_0243'
p549
ssS'IHC_80'
p550
(dp551
I1
S'MD589-IHC80-2015.07.31-02.46.49_MD589_1_0238'
p552
sI2
S'MD589-IHC80-2015.07.31-02.46.49_MD589_2_0239'
p553
sI3
S'MD589-IHC80-2015.07.31-02.46.49_MD589_3_0240'
p554
ssS'IHC_69'
p555
(dp556
I1
S'MD589-IHC69-2015.07.31-02.07.15_MD589_1_0205'
p557
sI2
S'MD589-IHC69-2015.07.31-02.07.15_MD589_2_0206'
p558
sI3
S'MD589-IHC69-2015.07.31-02.07.15_MD589_3_0207'
p559
ssS'IHC_68'
p560
(dp561
I1
S'MD589-IHC68-2015.07.31-02.03.18_MD589_1_0202'
p562
sI2
S'MD589-IHC68-2015.07.31-02.03.18_MD589_2_0203'
p563
sI3
S'MD589-IHC68-2015.07.31-02.03.18_MD589_3_0204'
p564
ssS'IHC_61'
p565
(dp566
I1
S'MD589-IHC61-2015.07.31-01.35.17_MD589_1_0181'
p567
sI2
S'MD589-IHC61-2015.07.31-01.35.17_MD589_2_0182'
p568
sI3
S'MD589-IHC61-2015.07.31-01.35.17_MD589_3_0183'
p569
ssS'IHC_60'
p570
(dp571
I1
S'MD589-IHC60-2015.07.31-01.31.11_MD589_1_0178'
p572
sI2
S'MD589-IHC60-2015.07.31-01.31.11_MD589_2_0179'
p573
sI3
S'MD589-IHC60-2015.07.31-01.31.11_MD589_3_0180'
p574
ssS'IHC_63'
p575
(dp576
I1
S'MD589-IHC63-2015.07.31-01.43.31_MD589_1_0187'
p577
sI2
S'MD589-IHC63-2015.07.31-01.43.31_MD589_2_0188'
p578
sI3
S'MD589-IHC63-2015.07.31-01.43.31_MD589_3_0189'
p579
ssS'IHC_62'
p580
(dp581
I1
S'MD589-IHC62-2015.07.31-01.39.26_MD589_1_0184'
p582
sI2
S'MD589-IHC62-2015.07.31-01.39.26_MD589_2_0185'
p583
sI3
S'MD589-IHC62-2015.07.31-01.39.26_MD589_3_0186'
p584
ssS'IHC_65'
p585
(dp586
I1
S'MD589-IHC65-2015.07.31-01.51.22_MD589_1_0193'
p587
sI2
S'MD589-IHC65-2015.07.31-01.51.22_MD589_2_0194'
p588
sI3
S'MD589-IHC65-2015.07.31-01.51.22_MD589_3_0195'
p589
ssS'IHC_64'
p590
(dp591
I1
S'MD589-IHC64-2015.07.31-01.47.28_MD589_1_0190'
p592
sI2
S'MD589-IHC64-2015.07.31-01.47.28_MD589_2_0191'
p593
sI3
S'MD589-IHC64-2015.07.31-01.47.28_MD589_3_0192'
p594
ssS'IHC_67'
p595
(dp596
I1
S'MD589-IHC67-2015.07.31-01.59.20_MD589_1_0199'
p597
sI2
S'MD589-IHC67-2015.07.31-01.59.20_MD589_2_0200'
p598
sI3
S'MD589-IHC67-2015.07.31-01.59.20_MD589_3_0201'
p599
ssS'IHC_66'
p600
(dp601
I1
S'MD589-IHC66-2015.07.31-01.55.14_MD589_1_0196'
p602
sI2
S'MD589-IHC66-2015.07.31-01.55.14_MD589_2_0197'
p603
sI3
S'MD589-IHC66-2015.07.31-01.55.14_MD589_3_0198'
p604
ssS'IHC_54'
p605
(dp606
I1
S'MD589-IHC54-2015.07.31-01.03.25_MD589_1_0160'
p607
sI2
S'MD589-IHC54-2015.07.31-01.03.25_MD589_2_0161'
p608
sI3
S'MD589-IHC54-2015.07.31-01.03.25_MD589_3_0162'
p609
ssS'IHC_55'
p610
(dp611
I1
S'MD589-IHC55-2015.07.31-01.08.44_MD589_1_0163'
p612
sI2
S'MD589-IHC55-2015.07.31-01.08.44_MD589_2_0164'
p613
sI3
S'MD589-IHC55-2015.07.31-01.08.44_MD589_3_0165'
p614
ssS'IHC_56'
p615
(dp616
I1
S'MD589-IHC56-2015.07.31-01.13.31_MD589_1_0166'
p617
sI2
S'MD589-IHC56-2015.07.31-01.13.31_MD589_2_0167'
p618
sI3
S'MD589-IHC56-2015.07.31-01.13.31_MD589_3_0168'
p619
ssS'IHC_57'
p620
(dp621
I1
S'MD589-IHC57-2015.07.31-01.18.16_MD589_1_0169'
p622
sI2
S'MD589-IHC57-2015.07.31-01.18.16_MD589_2_0170'
p623
sI3
S'MD589-IHC57-2015.07.31-01.18.16_MD589_3_0171'
p624
ssS'IHC_50'
p625
(dp626
I1
S'MD589-IHC50-2015.07.31-00.43.12_MD589_1_0148'
p627
sI2
S'MD589-IHC50-2015.07.31-00.43.12_MD589_2_0149'
p628
sI3
g6
ssS'IHC_51'
p629
(dp630
I1
S'MD589-IHC51-2015.07.31-00.47.11_MD589_1_0151'
p631
sI2
S'MD589-IHC51-2015.07.31-00.47.11_MD589_2_0152'
p632
sI3
S'MD589-IHC51-2015.07.31-00.47.11_MD589_3_0153'
p633
ssS'IHC_52'
p634
(dp635
I1
S'MD589-IHC52-2015.07.31-00.52.41_MD589_1_0154'
p636
sI2
S'MD589-IHC52-2015.07.31-00.52.41_MD589_2_0155'
p637
sI3
S'MD589-IHC52-2015.07.31-00.52.41_MD589_3_0156'
p638
ssS'IHC_53'
p639
(dp640
I1
S'MD589-IHC53-2015.07.31-00.58.06_MD589_1_0157'
p641
sI2
S'MD589-IHC53-2015.07.31-00.58.06_MD589_2_0158'
p642
sI3
S'MD589-IHC53-2015.07.31-00.58.06_MD589_3_0159'
p643
ssS'IHC_58'
p644
(dp645
I1
S'MD589-IHC58-2015.07.31-01.22.39_MD589_1_0172'
p646
sI2
S'MD589-IHC58-2015.07.31-01.22.39_MD589_2_0173'
p647
sI3
S'MD589-IHC58-2015.07.31-01.22.39_MD589_3_0174'
p648
ssS'IHC_59'
p649
(dp650
I1
S'MD589-IHC59-2015.07.31-01.26.55_MD589_1_0175'
p651
sI2
S'MD589-IHC59-2015.07.31-01.26.55_MD589_2_0176'
p652
sI3
S'MD589-IHC59-2015.07.31-01.26.55_MD589_3_0177'
p653
ssS'N_45'
p654
(dp655
I1
S'MD589-N45-2015.07.30-19.04.31_MD589_1_0133'
p656
sI2
S'MD589-N45-2015.07.30-19.04.31_MD589_2_0134'
p657
sI3
g6
ssS'N_44'
p658
(dp659
I1
S'MD589-N44-2015.07.30-19.00.35_MD589_1_0130'
p660
sI2
S'MD589-N44-2015.07.30-19.00.35_MD589_2_0131'
p661
sI3
g6
ssS'N_47'
p662
(dp663
I1
S'MD589-N47-2015.07.30-19.12.19_MD589_1_0139'
p664
sI2
S'MD589-N47-2015.07.30-19.12.19_MD589_2_0140'
p665
sI3
g6
ssS'N_46'
p666
(dp667
I1
S'MD589-N46-2015.07.30-19.08.29_MD589_1_0136'
p668
sI2
S'MD589-N46-2015.07.30-19.08.29_MD589_2_0137'
p669
sI3
g6
ssS'N_41'
p670
(dp671
I1
S'MD589-N41-2015.07.30-18.48.44_MD589_1_0121'
p672
sI2
S'MD589-N41-2015.07.30-18.48.44_MD589_2_0122'
p673
sI3
g6
ssS'N_40'
p674
(dp675
I1
S'MD589-N40-2015.07.30-18.44.48_MD589_1_0118'
p676
sI2
S'MD589-N40-2015.07.30-18.44.48_MD589_2_0119'
p677
sI3
g6
ssS'N_43'
p678
(dp679
I1
S'MD589-N43-2015.07.30-18.56.33_MD589_1_0127'
p680
sI2
S'MD589-N43-2015.07.30-18.56.33_MD589_2_0128'
p681
sI3
g6
ssS'N_42'
p682
(dp683
I1
S'MD589-N42-2015.07.30-18.52.37_MD589_1_0124'
p684
sI2
S'MD589-N42-2015.07.30-18.52.37_MD589_2_0125'
p685
sI3
g6
ssS'N_49'
p686
(dp687
I1
S'MD589-N49-2015.07.30-19.20.15_MD589_1_0145'
p688
sI2
S'MD589-N49-2015.07.30-19.20.15_MD589_2_0146'
p689
sI3
g6
ssS'N_48'
p690
(dp691
I1
S'MD589-N48-2015.07.30-19.16.21_MD589_1_0142'
p692
sI2
S'MD589-N48-2015.07.30-19.16.21_MD589_2_0143'
p693
sI3
g6
ssS'IHC_43'
p694
(dp695
I1
S'MD589-IHC43-2015.07.31-00.14.56_MD589_1_0127'
p696
sI2
S'MD589-IHC43-2015.07.31-00.14.56_MD589_2_0128'
p697
sI3
g6
ssS'IHC_42'
p698
(dp699
I1
S'MD589-IHC42-2015.07.31-00.10.45_MD589_1_0124'
p700
sI2
S'MD589-IHC42-2015.07.31-00.10.45_MD589_2_0125'
p701
sI3
g6
ssS'IHC_41'
p702
(dp703
I1
S'MD589-IHC41-2015.07.31-00.06.24_MD589_1_0121'
p704
sI2
S'MD589-IHC41-2015.07.31-00.06.24_MD589_2_0122'
p705
sI3
g6
ssS'IHC_40'
p706
(dp707
I1
S'MD589-IHC40-2015.07.31-00.02.21_MD589_1_0118'
p708
sI2
S'MD589-IHC40-2015.07.31-00.02.21_MD589_2_0119'
p709
sI3
g6
ssS'IHC_47'
p710
(dp711
I1
S'MD589-IHC47-2015.07.31-00.31.08_MD589_1_0139'
p712
sI2
S'MD589-IHC47-2015.07.31-00.31.08_MD589_2_0140'
p713
sI3
g6
ssS'IHC_46'
p714
(dp715
I1
S'MD589-IHC46-2015.07.31-00.27.07_MD589_1_0136'
p716
sI2
S'MD589-IHC46-2015.07.31-00.27.07_MD589_2_0137'
p717
sI3
g6
ssS'IHC_45'
p718
(dp719
I1
S'MD589-IHC45-2015.07.31-00.23.02_MD589_1_0133'
p720
sI2
S'MD589-IHC45-2015.07.31-00.23.02_MD589_2_0134'
p721
sI3
g6
ssS'IHC_44'
p722
(dp723
I1
S'MD589-IHC44-2015.07.31-00.18.50_MD589_1_0130'
p724
sI2
S'MD589-IHC44-2015.07.31-00.18.50_MD589_2_0131'
p725
sI3
g6
ssS'IHC_49'
p726
(dp727
I1
S'MD589-IHC49-2015.07.31-00.39.15_MD589_1_0145'
p728
sI2
S'MD589-IHC49-2015.07.31-00.39.15_MD589_2_0146'
p729
sI3
g6
ssS'IHC_48'
p730
(dp731
I1
S'MD589-IHC48-2015.07.31-00.35.14_MD589_1_0142'
p732
sI2
S'MD589-IHC48-2015.07.31-00.35.14_MD589_2_0143'
p733
sI3
g6
ssS'N_30'
p734
(dp735
I1
S'MD589-N30-2015.07.30-18.03.11_MD589_1_0088'
p736
sI2
S'MD589-N30-2015.07.30-18.03.11_MD589_2_0089'
p737
sI3
S'MD589-N30-2015.07.30-18.03.11_MD589_3_0090'
p738
ssS'N_31'
p739
(dp740
I1
S'MD589-N31-2015.07.30-18.08.35_MD589_1_0091'
p741
sI2
S'MD589-N31-2015.07.30-18.08.35_MD589_2_0092'
p742
sI3
g6
ssS'N_32'
p743
(dp744
I1
S'MD589-N32-2015.07.30-18.12.36_MD589_1_0094'
p745
sI2
S'MD589-N32-2015.07.30-18.12.36_MD589_2_0095'
p746
sI3
g6
ssS'N_33'
p747
(dp748
I1
S'MD589-N33-2015.07.30-18.16.40_MD589_1_0097'
p749
sI2
S'MD589-N33-2015.07.30-18.16.40_MD589_2_0098'
p750
sI3
g6
ssS'N_34'
p751
(dp752
I1
S'MD589-N34-2015.07.30-18.20.43_MD589_1_0100'
p753
sI2
S'MD589-N34-2015.07.30-18.20.43_MD589_2_0101'
p754
sI3
g6
ssS'N_35'
p755
(dp756
I1
S'MD589-N35-2015.07.30-18.24.53_MD589_1_0103'
p757
sI2
S'MD589-N35-2015.07.30-18.24.53_MD589_2_0104'
p758
sI3
g6
ssS'N_36'
p759
(dp760
I1
S'MD589-N36-2015.07.30-18.28.52_MD589_1_0106'
p761
sI2
S'MD589-N36-2015.07.30-18.28.52_MD589_2_0107'
p762
sI3
g6
ssS'N_37'
p763
(dp764
I1
S'MD589-N37-2015.07.30-18.32.51_MD589_1_0109'
p765
sI2
S'MD589-N37-2015.07.30-18.32.51_MD589_2_0110'
p766
sI3
g6
ssS'N_38'
p767
(dp768
I1
S'MD589-N38-2015.07.30-18.36.50_MD589_1_0112'
p769
sI2
S'MD589-N38-2015.07.30-18.36.50_MD589_2_0113'
p770
sI3
g6
ssS'N_39'
p771
(dp772
I1
S'MD589-N39-2015.07.30-18.40.43_MD589_1_0115'
p773
sI2
S'MD589-N39-2015.07.30-18.40.43_MD589_2_0116'
p774
sI3
g6
ss.