(dp1
S'DavidData'
p2
(dp3
S'RS139'
p4
(dp5
S'x1.25'
p6
(dp7
S'0017'
p8
(dp9
S'RS139_x1.25_0017.tif'
p10
NssS'0022'
p11
(dp12
S'RS139_x1.25_0022.tif'
p13
NssS'0015'
p14
(dp15
S'RS139_x1.25_0015.tif'
p16
NssS'0014'
p17
(dp18
S'RS139_x1.25_0014.tif'
p19
NssS'0013'
p20
(dp21
S'RS139_x1.25_0013.tif'
p22
NssS'0012'
p23
(dp24
S'RS139_x1.25_0012.tif'
p25
NssS'0011'
p26
(dp27
S'RS139_x1.25_0011.tif'
p28
NssS'0005'
p29
(dp30
S'RS139_x1.25_0005.tif'
p31
NssS'0031'
p32
(dp33
S'RS139_x1.25_0031.tif'
p34
NssS'0006'
p35
(dp36
S'RS139_x1.25_0006.tif'
p37
NssS'0033'
p38
(dp39
S'RS139_x1.25_0033.tif'
p40
NssS'0032'
p41
(dp42
S'RS139_x1.25_0032.tif'
p43
NssS'0021'
p44
(dp45
S'RS139_x1.25_0021.tif'
p46
NssS'0010'
p47
(dp48
S'RS139_x1.25_0010.tif'
p49
NssS'0026'
p50
(dp51
S'RS139_x1.25_0026.tif'
p52
NssS'0001'
p53
(dp54
S'RS139_x1.25_0001.tif'
p55
NssS'0024'
p56
(dp57
S'RS139_x1.25_0024.tif'
p58
NssS'0003'
p59
(dp60
S'RS139_x1.25_0003.tif'
p61
NssS'0004'
p62
(dp63
S'RS139_x1.25_0004.tif'
p64
NssS'0023'
p65
(dp66
S'RS139_x1.25_0023.tif'
p67
NssS'0020'
p68
(dp69
S'RS139_x1.25_0020.tif'
p70
NssS'0007'
p71
(dp72
S'RS139_x1.25_0007.tif'
p73
NssS'0000'
p74
(dp75
S'RS139_x1.25_0000.tif'
p76
NssS'0027'
p77
(dp78
S'RS139_x1.25_0027.tif'
p79
NssS'0002'
p80
(dp81
S'RS139_x1.25_0002.tif'
p82
NssS'0025'
p83
(dp84
S'RS139_x1.25_0025.tif'
p85
NssS'0028'
p86
(dp87
S'RS139_x1.25_0028.tif'
p88
NssS'0029'
p89
(dp90
S'RS139_x1.25_0029.tif'
p91
NssS'0008'
p92
(dp93
S'RS139_x1.25_0008.tif'
p94
NssS'0009'
p95
(dp96
S'RS139_x1.25_0009.tif'
p97
NssS'0030'
p98
(dp99
S'RS139_x1.25_0030.tif'
p100
NssS'0019'
p101
(dp102
S'RS139_x1.25_0019.tif'
p103
NssS'0018'
p104
(dp105
S'RS139_x1.25_0018.tif'
p106
NssS'0016'
p107
(dp108
S'RS139_x1.25_0016.tif'
p109
NsssS'x20'
p110
(dp111
S'0017'
p112
(dp113
S'RS139_x20_0017.tif'
p114
NssS'0022'
p115
(dp116
S'RS139_x20_0022.tif'
p117
NssS'0015'
p118
(dp119
S'RS139_x20_0015.tif'
p120
NssS'0014'
p121
(dp122
S'RS139_x20_0014.tif'
p123
NssS'0013'
p124
(dp125
S'RS139_x20_0013.tif'
p126
NssS'0012'
p127
(dp128
S'RS139_x20_0012.tif'
p129
NssS'0011'
p130
(dp131
S'RS139_x20_0011.tif'
p132
NssS'0005'
p133
(dp134
S'RS139_x20_0005.tif'
p135
NssS'0006'
p136
(dp137
S'RS139_x20_0006.tif'
p138
NssS'0019'
p139
(dp140
S'RS139_x20_0019.tif'
p141
NssS'0018'
p142
(dp143
S'RS139_x20_0018.tif'
p144
NssS'0021'
p145
(dp146
S'RS139_x20_0021.tif'
p147
NssS'0010'
p148
(dp149
S'RS139_x20_0010.tif'
p150
NssS'0026'
p151
(dp152
S'RS139_x20_0026.tif'
p153
NssS'0001'
p154
(dp155
S'RS139_x20_0001.tif'
p156
NssS'0024'
p157
(dp158
S'RS139_x20_0024.tif'
p159
NssS'0003'
p160
(dp161
S'RS139_x20_0003.tif'
p162
NssS'0004'
p163
(dp164
S'RS139_x20_0004.tif'
p165
NssS'0023'
p166
(dp167
S'RS139_x20_0023.tif'
p168
NssS'0020'
p169
(dp170
S'RS139_x20_0020.tif'
p171
NssS'0007'
p172
(dp173
S'RS139_x20_0007.tif'
p174
NssS'0000'
p175
(dp176
S'RS139_x20_0000.tif'
p177
NssS'0027'
p178
(dp179
S'RS139_x20_0027.tif'
p180
NssS'0002'
p181
(dp182
S'RS139_x20_0002.tif'
p183
NssS'0025'
p184
(dp185
S'RS139_x20_0025.tif'
p186
NssS'0028'
p187
(dp188
S'RS139_x20_0028.tif'
p189
NssS'0008'
p190
(dp191
S'RS139_x20_0008.tif'
p192
NssS'0009'
p193
(dp194
S'RS139_x20_0009.tif'
p195
NssS'0016'
p196
(dp197
S'RS139_x20_0016.tif'
p198
NsssS'x5'
p199
(dp200
S'0017'
p201
(dp202
S'RS139_x5_0017.tif'
p203
NssS'0022'
p204
(dp205
S'RS139_x5_0022.tif'
p206
NssS'0015'
p207
(dp208
S'RS139_x5_0015.tif'
p209
NssS'0014'
p210
(dp211
S'RS139_x5_0014.tif'
p212
NssS'0013'
p213
(dp214
S'RS139_x5_0013.tif'
p215
NssS'0012'
p216
(dp217
S'RS139_x5_0012.tif'
p218
NssS'0011'
p219
(dp220
S'RS139_x5_0011.tif'
p221
NssS'0005'
p222
(dp223
S'RS139_x5_0005.tif'
p224
NssS'0031'
p225
(dp226
S'RS139_x5_0031.tif'
p227
NssS'0006'
p228
(dp229
S'RS139_x5_0006.tif'
p230
NssS'0033'
p231
(dp232
S'RS139_x5_0033.tif'
p233
NssS'0032'
p234
(dp235
S'RS139_x5_0032.tif'
p236
NssS'0021'
p237
(dp238
S'RS139_x5_0021.tif'
p239
NssS'0010'
p240
(dp241
S'RS139_x5_0010.tif'
p242
NssS'0026'
p243
(dp244
S'RS139_x5_0026.tif'
p245
NssS'0001'
p246
(dp247
S'RS139_x5_0001.tif'
p248
NssS'0024'
p249
(dp250
S'RS139_x5_0024.tif'
p251
NssS'0003'
p252
(dp253
S'RS139_x5_0003.tif'
p254
NssS'0004'
p255
(dp256
S'RS139_x5_0004.tif'
p257
NssS'0023'
p258
(dp259
S'RS139_x5_0023.tif'
p260
NssS'0020'
p261
(dp262
S'RS139_x5_0020.tif'
p263
NssS'0007'
p264
(dp265
S'RS139_x5_0007.tif'
p266
NssS'0000'
p267
(dp268
S'RS139_x5_0000.tif'
p269
NssS'0027'
p270
(dp271
S'RS139_x5_0027.tif'
p272
NssS'0002'
p273
(dp274
S'RS139_x5_0002.tif'
p275
NssS'0025'
p276
(dp277
S'RS139_x5_0025.tif'
p278
NssS'0028'
p279
(dp280
S'RS139_x5_0028.tif'
p281
NssS'0029'
p282
(dp283
S'RS139_x5_0029.tif'
p284
NssS'0008'
p285
(dp286
S'RS139_x5_0008.tif'
p287
NssS'0009'
p288
(dp289
S'RS139_x5_0009.tif'
p290
NssS'0030'
p291
(dp292
S'RS139_x5_0030.tif'
p293
NssS'0019'
p294
(dp295
S'RS139_x5_0019.tif'
p296
NssS'0018'
p297
(dp298
S'RS139_x5_0018.tif'
p299
NssS'0016'
p300
(dp301
S'RS139_x5_0016.tif'
p302
NssssS'RI6'
p303
(dp304
S'x1.25'
p305
(dp306
S'0017'
p307
(dp308
S'RI6_x1.25_0017.tif'
p309
NssS'0004'
p310
(dp311
S'RI6_x1.25_0004.tif'
p312
NssS'0015'
p313
(dp314
S'RI6_x1.25_0015.tif'
p315
NssS'0014'
p316
(dp317
S'RI6_x1.25_0014.tif'
p318
NssS'0013'
p319
(dp320
S'RI6_x1.25_0013.tif'
p321
NssS'0012'
p322
(dp323
S'RI6_x1.25_0012.tif'
p324
NssS'0011'
p325
(dp326
S'RI6_x1.25_0011.tif'
p327
NssS'0005'
p328
(dp329
S'RI6_x1.25_0005.tif'
p330
NssS'0035'
p331
(dp332
S'RI6_x1.25_0035.tif'
p333
NssS'0034'
p334
(dp335
S'RI6_x1.25_0034.tif'
p336
NssS'0037'
p337
(dp338
S'RI6_x1.25_0037.tif'
p339
NssS'0026'
p340
(dp341
S'RI6_x1.25_0026.tif'
p342
NssS'0031'
p343
(dp344
S'RI6_x1.25_0031.tif'
p345
NssS'0006'
p346
(dp347
S'RI6_x1.25_0006.tif'
p348
NssS'0033'
p349
(dp350
S'RI6_x1.25_0033.tif'
p351
NssS'0032'
p352
(dp353
S'RI6_x1.25_0032.tif'
p354
NssS'0044'
p355
(dp356
S'RI6_x1.25_0044.tif'
p357
NssS'0021'
p358
(dp359
S'RI6_x1.25_0021.tif'
p360
NssS'0010'
p361
(dp362
S'RI6_x1.25_0010.tif'
p363
NssS'0039'
p364
(dp365
S'RI6_x1.25_0039.tif'
p366
NssS'0029'
p367
(dp368
S'RI6_x1.25_0029.tif'
p369
NssS'0038'
p370
(dp371
S'RI6_x1.25_0038.tif'
p372
NssS'0024'
p373
(dp374
S'RI6_x1.25_0024.tif'
p375
NssS'0003'
p376
(dp377
S'RI6_x1.25_0003.tif'
p378
NssS'0036'
p379
(dp380
S'RI6_x1.25_0036.tif'
p381
NssS'0047'
p382
(dp383
S'RI6_x1.25_0047.tif'
p384
NssS'0028'
p385
(dp386
S'RI6_x1.25_0028.tif'
p387
NssS'0048'
p388
(dp389
S'RI6_x1.25_0048.tif'
p390
NssS'0023'
p391
(dp392
S'RI6_x1.25_0023.tif'
p393
NssS'0020'
p394
(dp395
S'RI6_x1.25_0020.tif'
p396
NssS'0007'
p397
(dp398
S'RI6_x1.25_0007.tif'
p399
NssS'0000'
p400
(dp401
S'RI6_x1.25_0000.tif'
p402
NssS'0027'
p403
(dp404
S'RI6_x1.25_0027.tif'
p405
NssS'0002'
p406
(dp407
S'RI6_x1.25_0002.tif'
p408
NssS'0025'
p409
(dp410
S'RI6_x1.25_0025.tif'
p411
NssS'0040'
p412
(dp413
S'RI6_x1.25_0040.tif'
p414
NssS'0041'
p415
(dp416
S'RI6_x1.25_0041.tif'
p417
NssS'0042'
p418
(dp419
S'RI6_x1.25_0042.tif'
p420
NssS'0043'
p421
(dp422
S'RI6_x1.25_0043.tif'
p423
NssS'0008'
p424
(dp425
S'RI6_x1.25_0008.tif'
p426
NssS'0009'
p427
(dp428
S'RI6_x1.25_0009.tif'
p429
NssS'0046'
p430
(dp431
S'RI6_x1.25_0046.tif'
p432
NssS'0030'
p433
(dp434
S'RI6_x1.25_0030.tif'
p435
NssS'0022'
p436
(dp437
S'RI6_x1.25_0022.tif'
p438
NssS'0019'
p439
(dp440
S'RI6_x1.25_0019.tif'
p441
NssS'0018'
p442
(dp443
S'RI6_x1.25_0018.tif'
p444
NssS'0001'
p445
(dp446
S'RI6_x1.25_0001.tif'
p447
NssS'0016'
p448
(dp449
S'RI6_x1.25_0016.tif'
p450
NssS'0045'
p451
(dp452
S'RI6_x1.25_0045.tif'
p453
NsssS'x5'
p454
(dp455
S'0017'
p456
(dp457
S'RI6_x5_0017.tif'
p458
NssS'0004'
p459
(dp460
S'RI6_x5_0004.tif'
p461
NssS'0015'
p462
(dp463
S'RI6_x5_0015.tif'
p464
NssS'0014'
p465
(dp466
S'RI6_x5_0014.tif'
p467
NssS'0013'
p468
(dp469
S'RI6_x5_0013.tif'
p470
NssS'0012'
p471
(dp472
S'RI6_x5_0012.tif'
p473
NssS'0011'
p474
(dp475
S'RI6_x5_0011.tif'
p476
NssS'0005'
p477
(dp478
S'RI6_x5_0005.tif'
p479
NssS'0035'
p480
(dp481
S'RI6_x5_0035.tif'
p482
NssS'0034'
p483
(dp484
S'RI6_x5_0034.tif'
p485
NssS'0037'
p486
(dp487
S'RI6_x5_0037.tif'
p488
NssS'0026'
p489
(dp490
S'RI6_x5_0026.tif'
p491
NssS'0031'
p492
(dp493
S'RI6_x5_0031.tif'
p494
NssS'0006'
p495
(dp496
S'RI6_x5_0006.tif'
p497
NssS'0033'
p498
(dp499
S'RI6_x5_0033.tif'
p500
NssS'0032'
p501
(dp502
S'RI6_x5_0032.tif'
p503
NssS'0044'
p504
(dp505
S'RI6_x5_0044.tif'
p506
NssS'0021'
p507
(dp508
S'RI6_x5_0021.tif'
p509
NssS'0010'
p510
(dp511
S'RI6_x5_0010.tif'
p512
NssS'0039'
p513
(dp514
S'RI6_x5_0039.tif'
p515
NssS'0029'
p516
(dp517
S'RI6_x5_0029.tif'
p518
NssS'0038'
p519
(dp520
S'RI6_x5_0038.tif'
p521
NssS'0024'
p522
(dp523
S'RI6_x5_0024.tif'
p524
NssS'0003'
p525
(dp526
S'RI6_x5_0003.tif'
p527
NssS'0036'
p528
(dp529
S'RI6_x5_0036.tif'
p530
NssS'0047'
p531
(dp532
S'RI6_x5_0047.tif'
p533
NssS'0028'
p534
(dp535
S'RI6_x5_0028.tif'
p536
NssS'0048'
p537
(dp538
S'RI6_x5_0048.tif'
p539
NssS'0023'
p540
(dp541
S'RI6_x5_0023.tif'
p542
NssS'0020'
p543
(dp544
S'RI6_x5_0020.tif'
p545
NssS'0007'
p546
(dp547
S'RI6_x5_0007.tif'
p548
NssS'0000'
p549
(dp550
S'RI6_x5_0000.tif'
p551
NssS'0027'
p552
(dp553
S'RI6_x5_0027.tif'
p554
NssS'0002'
p555
(dp556
S'RI6_x5_0002.tif'
p557
NssS'0025'
p558
(dp559
S'RI6_x5_0025.tif'
p560
NssS'0040'
p561
(dp562
S'RI6_x5_0040.tif'
p563
NssS'0041'
p564
(dp565
S'RI6_x5_0041.tif'
p566
NssS'0042'
p567
(dp568
S'RI6_x5_0042.tif'
p569
NssS'0043'
p570
(dp571
S'RI6_x5_0043.tif'
p572
NssS'0008'
p573
(dp574
S'RI6_x5_0008.tif'
p575
NssS'0009'
p576
(dp577
S'RI6_x5_0009.tif'
p578
NssS'0046'
p579
(dp580
S'RI6_x5_0046.tif'
p581
NssS'0030'
p582
(dp583
S'RI6_x5_0030.tif'
p584
NssS'0022'
p585
(dp586
S'RI6_x5_0022.tif'
p587
NssS'0019'
p588
(dp589
S'RI6_x5_0019.tif'
p590
NssS'0018'
p591
(dp592
S'RI6_x5_0018.tif'
p593
NssS'0001'
p594
(dp595
S'RI6_x5_0001.tif'
p596
NssS'0016'
p597
(dp598
S'RI6_x5_0016.tif'
p599
NssS'0045'
p600
(dp601
S'RI6_x5_0045.tif'
p602
NssssS'RS58'
p603
(dp604
S'x1.25'
p605
(dp606
S'0017'
p607
(dp608
S'RS58_x1.25_0017.tif'
p609
NssS'0022'
p610
(dp611
S'RS58_x1.25_0022.tif'
p612
NssS'0015'
p613
(dp614
S'RS58_x1.25_0015.tif'
p615
NssS'0014'
p616
(dp617
S'RS58_x1.25_0014.tif'
p618
NssS'0013'
p619
(dp620
S'RS58_x1.25_0013.tif'
p621
NssS'0012'
p622
(dp623
S'RS58_x1.25_0012.tif'
p624
NssS'0011'
p625
(dp626
S'RS58_x1.25_0011.tif'
p627
NssS'0005'
p628
(dp629
S'RS58_x1.25_0005.tif'
p630
NssS'0006'
p631
(dp632
S'RS58_x1.25_0006.tif'
p633
NssS'0019'
p634
(dp635
S'RS58_x1.25_0019.tif'
p636
NssS'0018'
p637
(dp638
S'RS58_x1.25_0018.tif'
p639
NssS'0021'
p640
(dp641
S'RS58_x1.25_0021.tif'
p642
NssS'0010'
p643
(dp644
S'RS58_x1.25_0010.tif'
p645
NssS'0026'
p646
(dp647
S'RS58_x1.25_0026.tif'
p648
NssS'0001'
p649
(dp650
S'RS58_x1.25_0001.tif'
p651
NssS'0024'
p652
(dp653
S'RS58_x1.25_0024.tif'
p654
NssS'0003'
p655
(dp656
S'RS58_x1.25_0003.tif'
p657
NssS'0004'
p658
(dp659
S'RS58_x1.25_0004.tif'
p660
NssS'0023'
p661
(dp662
S'RS58_x1.25_0023.tif'
p663
NssS'0020'
p664
(dp665
S'RS58_x1.25_0020.tif'
p666
NssS'0007'
p667
(dp668
S'RS58_x1.25_0007.tif'
p669
NssS'0000'
p670
(dp671
S'RS58_x1.25_0000.tif'
p672
NssS'0027'
p673
(dp674
S'RS58_x1.25_0027.tif'
p675
NssS'0002'
p676
(dp677
S'RS58_x1.25_0002.tif'
p678
NssS'0025'
p679
(dp680
S'RS58_x1.25_0025.tif'
p681
NssS'0008'
p682
(dp683
S'RS58_x1.25_0008.tif'
p684
NssS'0009'
p685
(dp686
S'RS58_x1.25_0009.tif'
p687
NssS'0016'
p688
(dp689
S'RS58_x1.25_0016.tif'
p690
NsssS'x20'
p691
(dp692
S'0017'
p693
(dp694
S'RS58_x20_0017.tif'
p695
NssS'0022'
p696
(dp697
S'RS58_x20_0022.tif'
p698
NssS'0015'
p699
(dp700
S'RS58_x20_0015.tif'
p701
NssS'0014'
p702
(dp703
S'RS58_x20_0014.tif'
p704
NssS'0013'
p705
(dp706
S'RS58_x20_0013.tif'
p707
NssS'0012'
p708
(dp709
S'RS58_x20_0012.tif'
p710
NssS'0011'
p711
(dp712
S'RS58_x20_0011.tif'
p713
NssS'0005'
p714
(dp715
S'RS58_x20_0005.tif'
p716
NssS'0006'
p717
(dp718
S'RS58_x20_0006.tif'
p719
NssS'0019'
p720
(dp721
S'RS58_x20_0019.tif'
p722
NssS'0018'
p723
(dp724
S'RS58_x20_0018.tif'
p725
NssS'0021'
p726
(dp727
S'RS58_x20_0021.tif'
p728
NssS'0010'
p729
(dp730
S'RS58_x20_0010.tif'
p731
NssS'0026'
p732
(dp733
S'RS58_x20_0026.tif'
p734
NssS'0001'
p735
(dp736
S'RS58_x20_0001.tif'
p737
NssS'0024'
p738
(dp739
S'RS58_x20_0024.tif'
p740
NssS'0003'
p741
(dp742
S'RS58_x20_0003.tif'
p743
NssS'0004'
p744
(dp745
S'RS58_x20_0004.tif'
p746
NssS'0023'
p747
(dp748
S'RS58_x20_0023.tif'
p749
NssS'0020'
p750
(dp751
S'RS58_x20_0020.tif'
p752
NssS'0007'
p753
(dp754
S'RS58_x20_0007.tif'
p755
NssS'0000'
p756
(dp757
S'RS58_x20_0000.tif'
p758
NssS'0027'
p759
(dp760
S'RS58_x20_0027.tif'
p761
NssS'0002'
p762
(dp763
S'RS58_x20_0002.tif'
p764
NssS'0025'
p765
(dp766
S'RS58_x20_0025.tif'
p767
NssS'0008'
p768
(dp769
S'RS58_x20_0008.tif'
p770
NssS'0009'
p771
(dp772
S'RS58_x20_0009.tif'
p773
NssS'0016'
p774
(dp775
S'RS58_x20_0016.tif'
p776
NsssS'x5'
p777
(dp778
S'0017'
p779
(dp780
S'RS58_x5_0017.tif'
p781
NssS'0022'
p782
(dp783
S'RS58_x5_0022.tif'
p784
NssS'0015'
p785
(dp786
S'RS58_x5_0015.tif'
p787
NssS'0014'
p788
(dp789
S'RS58_x5_0014.tif'
p790
NssS'0013'
p791
(dp792
S'RS58_x5_0013.tif'
p793
NssS'0012'
p794
(dp795
S'RS58_x5_0012.tif'
p796
NssS'0011'
p797
(dp798
S'RS58_x5_0011.tif'
p799
NssS'0005'
p800
(dp801
S'RS58_x5_0005.tif'
p802
NssS'0006'
p803
(dp804
S'RS58_x5_0006.tif'
p805
NssS'0019'
p806
(dp807
S'RS58_x5_0019.tif'
p808
NssS'0018'
p809
(dp810
S'RS58_x5_0018.tif'
p811
NssS'0021'
p812
(dp813
S'RS58_x5_0021.tif'
p814
NssS'0010'
p815
(dp816
S'RS58_x5_0010.tif'
p817
NssS'0026'
p818
(dp819
S'RS58_x5_0026.tif'
p820
NssS'0001'
p821
(dp822
S'RS58_x5_0001.tif'
p823
NssS'0024'
p824
(dp825
S'RS58_x5_0024.tif'
p826
NssS'0003'
p827
(dp828
S'RS58_x5_0003.tif'
p829
NssS'0004'
p830
(dp831
S'RS58_x5_0004.tif'
p832
NssS'0023'
p833
(dp834
S'RS58_x5_0023.tif'
p835
NssS'0020'
p836
(dp837
S'RS58_x5_0020.tif'
p838
NssS'0007'
p839
(dp840
S'RS58_x5_0007.tif'
p841
NssS'0000'
p842
(dp843
S'RS58_x5_0000.tif'
p844
NssS'0027'
p845
(dp846
S'RS58_x5_0027.tif'
p847
NssS'0002'
p848
(dp849
S'RS58_x5_0002.tif'
p850
NssS'0025'
p851
(dp852
S'RS58_x5_0025.tif'
p853
NssS'0008'
p854
(dp855
S'RS58_x5_0008.tif'
p856
NssS'0009'
p857
(dp858
S'RS58_x5_0009.tif'
p859
NssS'0016'
p860
(dp861
S'RS58_x5_0016.tif'
p862
NssssS'RS76'
p863
(dp864
S'x5'
p865
(dp866
S'0017'
p867
(dp868
S'RS76_x5_0017.tif'
p869
NssS'0022'
p870
(dp871
S'RS76_x5_0022.tif'
p872
NssS'0015'
p873
(dp874
S'RS76_x5_0015.tif'
p875
NssS'0014'
p876
(dp877
S'RS76_x5_0014.tif'
p878
NssS'0013'
p879
(dp880
S'RS76_x5_0013.tif'
p881
NssS'0012'
p882
(dp883
S'RS76_x5_0012.tif'
p884
NssS'0011'
p885
(dp886
S'RS76_x5_0011.tif'
p887
NssS'0005'
p888
(dp889
S'RS76_x5_0005.tif'
p890
NssS'0035'
p891
(dp892
S'RS76_x5_0035.tif'
p893
NssS'0034'
p894
(dp895
S'RS76_x5_0034.tif'
p896
NssS'0031'
p897
(dp898
S'RS76_x5_0031.tif'
p899
NssS'0006'
p900
(dp901
S'RS76_x5_0006.tif'
p902
NssS'0033'
p903
(dp904
S'RS76_x5_0033.tif'
p905
NssS'0032'
p906
(dp907
S'RS76_x5_0032.tif'
p908
NssS'0021'
p909
(dp910
S'RS76_x5_0021.tif'
p911
NssS'0010'
p912
(dp913
S'RS76_x5_0010.tif'
p914
NssS'0026'
p915
(dp916
S'RS76_x5_0026.tif'
p917
NssS'0001'
p918
(dp919
S'RS76_x5_0001.tif'
p920
NssS'0024'
p921
(dp922
S'RS76_x5_0024.tif'
p923
NssS'0003'
p924
(dp925
S'RS76_x5_0003.tif'
p926
NssS'0004'
p927
(dp928
S'RS76_x5_0004.tif'
p929
NssS'0023'
p930
(dp931
S'RS76_x5_0023.tif'
p932
NssS'0020'
p933
(dp934
S'RS76_x5_0020.tif'
p935
NssS'0007'
p936
(dp937
S'RS76_x5_0007.tif'
p938
NssS'0000'
p939
(dp940
S'RS76_x5_0000.tif'
p941
NssS'0027'
p942
(dp943
S'RS76_x5_0027.tif'
p944
NssS'0002'
p945
(dp946
S'RS76_x5_0002.tif'
p947
NssS'0025'
p948
(dp949
S'RS76_x5_0025.tif'
p950
NssS'0028'
p951
(dp952
S'RS76_x5_0028.tif'
p953
NssS'0029'
p954
(dp955
S'RS76_x5_0029.tif'
p956
NssS'0008'
p957
(dp958
S'RS76_x5_0008.tif'
p959
NssS'0009'
p960
(dp961
S'RS76_x5_0009.tif'
p962
NssS'0030'
p963
(dp964
S'RS76_x5_0030.tif'
p965
NssS'0019'
p966
(dp967
S'RS76_x5_0019.tif'
p968
NssS'0018'
p969
(dp970
S'RS76_x5_0018.tif'
p971
NssS'0016'
p972
(dp973
S'RS76_x5_0016.tif'
p974
NssssS'RS155'
p975
(dp976
S'x5'
p977
(dp978
S'0017'
p979
(dp980
S'RS155_x5_0017.tif'
p981
NssS'0022'
p982
(dp983
S'RS155_x5_0022.tif'
p984
NssS'0015'
p985
(dp986
S'RS155_x5_0015.tif'
p987
NssS'0014'
p988
(dp989
S'RS155_x5_0014.tif'
p990
NssS'0013'
p991
(dp992
S'RS155_x5_0013.tif'
p993
NssS'0012'
p994
(dp995
S'RS155_x5_0012.tif'
p996
NssS'0011'
p997
(dp998
S'RS155_x5_0011.tif'
p999
NssS'0005'
p1000
(dp1001
S'RS155_x5_0005.tif'
p1002
NssS'0035'
p1003
(dp1004
S'RS155_x5_0035.tif'
p1005
NssS'0034'
p1006
(dp1007
S'RS155_x5_0034.tif'
p1008
NssS'0037'
p1009
(dp1010
S'RS155_x5_0037.tif'
p1011
NssS'0036'
p1012
(dp1013
S'RS155_x5_0036.tif'
p1014
NssS'0031'
p1015
(dp1016
S'RS155_x5_0031.tif'
p1017
NssS'0006'
p1018
(dp1019
S'RS155_x5_0006.tif'
p1020
NssS'0033'
p1021
(dp1022
S'RS155_x5_0033.tif'
p1023
NssS'0032'
p1024
(dp1025
S'RS155_x5_0032.tif'
p1026
NssS'0021'
p1027
(dp1028
S'RS155_x5_0021.tif'
p1029
NssS'0010'
p1030
(dp1031
S'RS155_x5_0010.tif'
p1032
NssS'0026'
p1033
(dp1034
S'RS155_x5_0026.tif'
p1035
NssS'0038'
p1036
(dp1037
S'RS155_x5_0038.tif'
p1038
NssS'0024'
p1039
(dp1040
S'RS155_x5_0024.tif'
p1041
NssS'0003'
p1042
(dp1043
S'RS155_x5_0003.tif'
p1044
NssS'0004'
p1045
(dp1046
S'RS155_x5_0004.tif'
p1047
NssS'0023'
p1048
(dp1049
S'RS155_x5_0023.tif'
p1050
NssS'0020'
p1051
(dp1052
S'RS155_x5_0020.tif'
p1053
NssS'0007'
p1054
(dp1055
S'RS155_x5_0007.tif'
p1056
NssS'0000'
p1057
(dp1058
S'RS155_x5_0000.tif'
p1059
NssS'0027'
p1060
(dp1061
S'RS155_x5_0027.tif'
p1062
NssS'0002'
p1063
(dp1064
S'RS155_x5_0002.tif'
p1065
NssS'0025'
p1066
(dp1067
S'RS155_x5_0025.tif'
p1068
NssS'0028'
p1069
(dp1070
S'RS155_x5_0028.tif'
p1071
NssS'0029'
p1072
(dp1073
S'RS155_x5_0029.tif'
p1074
NssS'0008'
p1075
(dp1076
S'RS155_x5_0008.tif'
p1077
NssS'0009'
p1078
(dp1079
S'RS155_x5_0009.tif'
p1080
NssS'0030'
p1081
(dp1082
S'RS155_x5_0030.tif'
p1083
NssS'0019'
p1084
(dp1085
S'RS155_x5_0019.tif'
p1086
NssS'0018'
p1087
(dp1088
S'RS155_x5_0018.tif'
p1089
NssS'0001'
p1090
(dp1091
S'RS155_x5_0001.tif'
p1092
NssS'0039'
p1093
(dp1094
S'RS155_x5_0039.tif'
p1095
NssS'0016'
p1096
(dp1097
S'RS155_x5_0016.tif'
p1098
NssssS'RS141'
p1099
(dp1100
S'x1.25'
p1101
(dp1102
S'0017'
p1103
(dp1104
S'RS141_x1.25_0017.tif'
p1105
NssS'0022'
p1106
(dp1107
S'RS141_x1.25_0022.tif'
p1108
NssS'0015'
p1109
(dp1110
S'RS141_x1.25_0015.tif'
p1111
NssS'0014'
p1112
(dp1113
S'RS141_x1.25_0014.tif'
p1114
NssS'0013'
p1115
(dp1116
S'RS141_x1.25_0013.tif'
p1117
NssS'0012'
p1118
(dp1119
S'RS141_x1.25_0012.tif'
p1120
NssS'0011'
p1121
(dp1122
S'RS141_x1.25_0011.tif'
p1123
NssS'0005'
p1124
(dp1125
S'RS141_x1.25_0005.tif'
p1126
NssS'0006'
p1127
(dp1128
S'RS141_x1.25_0006.tif'
p1129
NssS'0019'
p1130
(dp1131
S'RS141_x1.25_0019.tif'
p1132
NssS'0018'
p1133
(dp1134
S'RS141_x1.25_0018.tif'
p1135
NssS'0021'
p1136
(dp1137
S'RS141_x1.25_0021.tif'
p1138
NssS'0024'
p1139
(dp1140
S'RS141_x1.25_0024.tif'
p1141
NssS'0010'
p1142
(dp1143
S'RS141_x1.25_0010.tif'
p1144
NssS'0004'
p1145
(dp1146
S'RS141_x1.25_0004.tif'
p1147
NssS'0023'
p1148
(dp1149
S'RS141_x1.25_0023.tif'
p1150
NssS'0020'
p1151
(dp1152
S'RS141_x1.25_0020.tif'
p1153
NssS'0007'
p1154
(dp1155
S'RS141_x1.25_0007.tif'
p1156
NssS'0000'
p1157
(dp1158
S'RS141_x1.25_0000.tif'
p1159
NssS'0001'
p1160
(dp1161
S'RS141_x1.25_0001.tif'
p1162
NssS'0002'
p1163
(dp1164
S'RS141_x1.25_0002.tif'
p1165
NssS'0003'
p1166
(dp1167
S'RS141_x1.25_0003.tif'
p1168
NssS'0008'
p1169
(dp1170
S'RS141_x1.25_0008.tif'
p1171
NssS'0009'
p1172
(dp1173
S'RS141_x1.25_0009.tif'
p1174
NssS'0016'
p1175
(dp1176
S'RS141_x1.25_0016.tif'
p1177
NsssS'x20'
p1178
(dp1179
S'0017'
p1180
(dp1181
S'RS141_x20_0017.tif'
p1182
NssS'0022'
p1183
(dp1184
S'RS141_x20_0022.tif'
p1185
NssS'0015'
p1186
(dp1187
S'RS141_x20_0015.tif'
p1188
NssS'0014'
p1189
(dp1190
S'RS141_x20_0014.tif'
p1191
NssS'0013'
p1192
(dp1193
S'RS141_x20_0013.tif'
p1194
NssS'0012'
p1195
(dp1196
S'RS141_x20_0012.tif'
p1197
NssS'0011'
p1198
(dp1199
S'RS141_x20_0011.tif'
p1200
NssS'0005'
p1201
(dp1202
S'RS141_x20_0005.tif'
p1203
NssS'0006'
p1204
(dp1205
S'RS141_x20_0006.tif'
p1206
NssS'0019'
p1207
(dp1208
S'RS141_x20_0019.tif'
p1209
NssS'0018'
p1210
(dp1211
S'RS141_x20_0018.tif'
p1212
NssS'0021'
p1213
(dp1214
S'RS141_x20_0021.tif'
p1215
NssS'0024'
p1216
(dp1217
S'RS141_x20_0024.tif'
p1218
NssS'0010'
p1219
(dp1220
S'RS141_x20_0010.tif'
p1221
NssS'0004'
p1222
(dp1223
S'RS141_x20_0004.tif'
p1224
NssS'0023'
p1225
(dp1226
S'RS141_x20_0023.tif'
p1227
NssS'0020'
p1228
(dp1229
S'RS141_x20_0020.tif'
p1230
NssS'0007'
p1231
(dp1232
S'RS141_x20_0007.tif'
p1233
NssS'0000'
p1234
(dp1235
S'RS141_x20_0000.tif'
p1236
NssS'0001'
p1237
(dp1238
S'RS141_x20_0001.tif'
p1239
NssS'0002'
p1240
(dp1241
S'RS141_x20_0002.tif'
p1242
NssS'0003'
p1243
(dp1244
S'RS141_x20_0003.tif'
p1245
NssS'0008'
p1246
(dp1247
S'RS141_x20_0008.tif'
p1248
NssS'0009'
p1249
(dp1250
S'RS141_x20_0009.tif'
p1251
NssS'0016'
p1252
(dp1253
S'RS141_x20_0016.tif'
p1254
NsssS'x5'
p1255
(dp1256
S'0017'
p1257
(dp1258
S'redNissl'
p1259
(dp1260
S'pipelineResults'
p1261
(dp1262
S'RS141_x5_0017_redNissl_fg.npy'
p1263
NsS'RS141_x5_0017_redNissl_cropMask.npy'
p1264
NsS'RS141_x5_0017_redNissl_texMap.tif'
p1265
NsS'RS141_x5_0017_redNissl_features.npy'
p1266
NsS'RS141_x5_0017_redNissl_texHist.npy'
p1267
NsS'RS141_x5_0017_redNissl_centroids.npy'
p1268
NsS'RS141_x5_0017_redNissl_segmentation.npy'
p1269
NsS'RS141_x5_0017_redNissl_segmentation.tif'
p1270
NsS'RS141_x5_0017_redNissl_texMap.npy'
p1271
NsS'RS141_x5_0017_redNissl_dirHist.npy'
p1272
NsS'RS141_x5_0017_redNissl_uncropMask.npy'
p1273
NsS'RS141_x5_0017_redNissl_bg.npy'
p1274
NsS'RS141_x5_0017_redNissl_neighbors.npy'
p1275
NsS'RS141_x5_0017_redNissl_cropImg.tif'
p1276
NsssS'RS141_x5_0017.tif'
p1277
NssS'0022'
p1278
(dp1279
S'RS141_x5_0022.tif'
p1280
NsS'redNissl'
p1281
(dp1282
S'pipelineResults'
p1283
(dp1284
S'RS141_x5_0022_redNissl_segmentation.npy'
p1285
NsS'RS141_x5_0022_redNissl_features.npy'
p1286
NsS'RS141_x5_0022_redNissl_centroids.npy'
p1287
NsS'RS141_x5_0022_redNissl_neighbors.npy'
p1288
NsS'RS141_x5_0022_redNissl_bg.npy'
p1289
NsS'RS141_x5_0022_redNissl_cropImg.tif'
p1290
NsS'RS141_x5_0022_redNissl_dirHist.npy'
p1291
NsS'RS141_x5_0022_redNissl_cropMask.npy'
p1292
NsS'RS141_x5_0022_redNissl_segmentation.tif'
p1293
NsS'RS141_x5_0022_redNissl_texMap.tif'
p1294
NsS'RS141_x5_0022_redNissl_texMap.npy'
p1295
NsS'RS141_x5_0022_redNissl_texHist.npy'
p1296
NsS'RS141_x5_0022_redNissl_fg.npy'
p1297
NsS'RS141_x5_0022_redNissl_uncropMask.npy'
p1298
NssssS'0015'
p1299
(dp1300
S'redNissl'
p1301
(dp1302
S'pipelineResults'
p1303
(dp1304
S'RS141_x5_0015_redNissl_dirHist.npy'
p1305
NsS'RS141_x5_0015_redNissl_features.npy'
p1306
NsS'RS141_x5_0015_redNissl_segmentation.tif'
p1307
NsS'RS141_x5_0015_redNissl_texHist.npy'
p1308
NsS'RS141_x5_0015_redNissl_bg.npy'
p1309
NsS'RS141_x5_0015_redNissl_texMap.npy'
p1310
NsS'RS141_x5_0015_redNissl_neighbors.npy'
p1311
NsS'RS141_x5_0015_redNissl_uncropMask.npy'
p1312
NsS'RS141_x5_0015_redNissl_texMap.tif'
p1313
NsS'RS141_x5_0015_redNissl_fg.npy'
p1314
NsS'RS141_x5_0015_redNissl_cropMask.npy'
p1315
NsS'RS141_x5_0015_redNissl_cropImg.tif'
p1316
NsS'RS141_x5_0015_redNissl_segmentation.npy'
p1317
NsssS'RS141_x5_0015.tif'
p1318
NssS'0014'
p1319
(dp1320
S'redNissl'
p1321
(dp1322
S'pipelineResults'
p1323
(dp1324
S'RS141_x5_0014_redNissl_cropImg.tif'
p1325
NsS'RS141_x5_0014_redNissl_bg.npy'
p1326
NsS'RS141_x5_0014_redNissl_segmentation.npy'
p1327
NsS'RS141_x5_0014_redNissl_fg.npy'
p1328
NsS'RS141_x5_0014_redNissl_features.npy'
p1329
NsS'RS141_x5_0014_redNissl_cropMask.npy'
p1330
NsS'RS141_x5_0014_redNissl_uncropMask.npy'
p1331
NsS'RS141_x5_0014_redNissl_texHist.npy'
p1332
NsS'RS141_x5_0014_redNissl_texMap.tif'
p1333
NsS'RS141_x5_0014_redNissl_neighbors.npy'
p1334
NsS'RS141_x5_0014_redNissl_dirHist.npy'
p1335
NsS'RS141_x5_0014_redNissl_texMap.npy'
p1336
NsS'RS141_x5_0014_redNissl_segmentation.tif'
p1337
NsssS'RS141_x5_0014.tif'
p1338
NssS'0013'
p1339
(dp1340
S'RS141_x5_0013.tif'
p1341
NsS'redNissl'
p1342
(dp1343
S'pipelineResults'
p1344
(dp1345
S'RS141_x5_0013_redNissl_cropMask.npy'
p1346
NsS'RS141_x5_0013_redNissl_neighbors.npy'
p1347
NsS'RS141_x5_0013_redNissl_cropImg.tif'
p1348
NsS'RS141_x5_0013_redNissl_texMap.npy'
p1349
NsS'RS141_x5_0013_redNissl_texHist.npy'
p1350
NsS'RS141_x5_0013_redNissl_dirHist.npy'
p1351
NsS'RS141_x5_0013_redNissl_bg.npy'
p1352
NsS'RS141_x5_0013_redNissl_features.npy'
p1353
NsS'RS141_x5_0013_redNissl_uncropMask.npy'
p1354
NsS'RS141_x5_0013_redNissl_texMap.tif'
p1355
NsS'RS141_x5_0013_redNissl_fg.npy'
p1356
NsS'RS141_x5_0013_redNissl_segmentation.tif'
p1357
NsS'RS141_x5_0013_redNissl_segmentation.npy'
p1358
NssssS'0012'
p1359
(dp1360
S'redNissl'
p1361
(dp1362
S'pipelineResults'
p1363
(dp1364
S'RS141_x5_0012_redNissl_segmentation.npy'
p1365
NsS'RS141_x5_0012_redNissl_segmentation.tif'
p1366
NsS'RS141_x5_0012_redNissl_texMap.tif'
p1367
NsS'RS141_x5_0012_redNissl_uncropMask.npy'
p1368
NsS'RS141_x5_0012_redNissl_features.npy'
p1369
NsS'RS141_x5_0012_redNissl_dirHist.npy'
p1370
NsS'RS141_x5_0012_redNissl_bg.npy'
p1371
NsS'RS141_x5_0012_redNissl_cropImg.tif'
p1372
NsS'RS141_x5_0012_redNissl_texMap.npy'
p1373
NsS'RS141_x5_0012_redNissl_neighbors.npy'
p1374
NsS'RS141_x5_0012_redNissl_fg.npy'
p1375
NsS'RS141_x5_0012_redNissl_cropMask.npy'
p1376
NsS'RS141_x5_0012_redNissl_texHist.npy'
p1377
NsssS'RS141_x5_0012.tif'
p1378
NssS'0011'
p1379
(dp1380
S'redNissl'
p1381
(dp1382
S'pipelineResults'
p1383
(dp1384
S'RS141_x5_0011_redNissl_cropImg.tif'
p1385
NsS'RS141_x5_0011_redNissl_dirHist.npy'
p1386
NsS'RS141_x5_0011_redNissl_segmentation.npy'
p1387
NsS'RS141_x5_0011_redNissl_cropMask.npy'
p1388
NsS'RS141_x5_0011_redNissl_bg.npy'
p1389
NsS'RS141_x5_0011_redNissl_features.npy'
p1390
NsS'RS141_x5_0011_redNissl_segmentation.tif'
p1391
NsS'RS141_x5_0011_redNissl_texMap.npy'
p1392
NsS'RS141_x5_0011_redNissl_uncropMask.npy'
p1393
NsS'RS141_x5_0011_redNissl_texHist.npy'
p1394
NsS'RS141_x5_0011_redNissl_neighbors.npy'
p1395
NsS'RS141_x5_0011_redNissl_fg.npy'
p1396
NsS'RS141_x5_0011_redNissl_texMap.tif'
p1397
NsssS'RS141_x5_0011.tif'
p1398
NssS'0005'
p1399
(dp1400
S'redNissl'
p1401
(dp1402
S'pipelineResults'
p1403
(dp1404
S'RS141_x5_0005_redNissl_cropMask.npy'
p1405
NsS'RS141_x5_0005_redNissl_segmentation.tif'
p1406
NsS'RS141_x5_0005_redNissl_dirHist.npy'
p1407
NsS'RS141_x5_0005_redNissl_features.npy'
p1408
NsS'RS141_x5_0005_redNissl_texHist.npy'
p1409
NsS'RS141_x5_0005_redNissl_segmentation.npy'
p1410
NsS'RS141_x5_0005_redNissl_texMap.npy'
p1411
NsS'RS141_x5_0005_redNissl_texMap.tif'
p1412
NsS'RS141_x5_0005_redNissl_bg.npy'
p1413
NsS'RS141_x5_0005_redNissl_cropImg.tif'
p1414
NsS'RS141_x5_0005_redNissl_neighbors.npy'
p1415
NsS'RS141_x5_0005_redNissl_fg.npy'
p1416
NsS'RS141_x5_0005_redNissl_uncropMask.npy'
p1417
NsssS'RS141_x5_0005.tif'
p1418
NssS'0006'
p1419
(dp1420
S'redNissl'
p1421
(dp1422
S'pipelineResults'
p1423
(dp1424
S'RS141_x5_0006_redNissl_features.npy'
p1425
NsS'RS141_x5_0006_redNissl_neighbors.npy'
p1426
NsS'RS141_x5_0006_redNissl_fg.npy'
p1427
NsS'RS141_x5_0006_redNissl_segmentation.tif'
p1428
NsS'RS141_x5_0006_redNissl_texMap.tif'
p1429
NsS'RS141_x5_0006_redNissl_cropImg.tif'
p1430
NsS'RS141_x5_0006_redNissl_texMap.npy'
p1431
NsS'RS141_x5_0006_redNissl_uncropMask.npy'
p1432
NsS'RS141_x5_0006_redNissl_cropMask.npy'
p1433
NsS'RS141_x5_0006_redNissl_bg.npy'
p1434
NsS'RS141_x5_0006_redNissl_texHist.npy'
p1435
NsS'RS141_x5_0006_redNissl_dirHist.npy'
p1436
NsS'RS141_x5_0006_redNissl_segmentation.npy'
p1437
NsssS'RS141_x5_0006.tif'
p1438
NssS'0019'
p1439
(dp1440
S'redNissl'
p1441
(dp1442
S'pipelineResults'
p1443
(dp1444
S'RS141_x5_0019_redNissl_features.npy'
p1445
NsS'RS141_x5_0019_redNissl_neighbors.npy'
p1446
NsS'RS141_x5_0019_redNissl_fg.npy'
p1447
NsS'RS141_x5_0019_redNissl_segmentation.tif'
p1448
NsS'RS141_x5_0019_redNissl_texMap.tif'
p1449
NsS'RS141_x5_0019_redNissl_cropImg.tif'
p1450
NsS'RS141_x5_0019_redNissl_texMap.npy'
p1451
NsS'RS141_x5_0019_redNissl_dirHist.npy'
p1452
NsS'RS141_x5_0019_redNissl_uncropMask.npy'
p1453
NsS'RS141_x5_0019_redNissl_cropMask.npy'
p1454
NsS'RS141_x5_0019_redNissl_bg.npy'
p1455
NsS'RS141_x5_0019_redNissl_texHist.npy'
p1456
NsS'RS141_x5_0019_redNissl_centroids.npy'
p1457
NsS'RS141_x5_0019_redNissl_segmentation.npy'
p1458
NsssS'RS141_x5_0019.tif'
p1459
NssS'0018'
p1460
(dp1461
S'redNissl'
p1462
(dp1463
S'pipelineResults'
p1464
(dp1465
S'RS141_x5_0018_redNissl_uncropMask.npy'
p1466
NsS'RS141_x5_0018_redNissl_texMap.tif'
p1467
NsS'RS141_x5_0018_redNissl_cropImg.tif'
p1468
NsS'RS141_x5_0018_redNissl_centroids.npy'
p1469
NsS'RS141_x5_0018_redNissl_features.npy'
p1470
NsS'RS141_x5_0018_redNissl_neighbors.npy'
p1471
NsS'RS141_x5_0018_redNissl_segmentation.tif'
p1472
NsS'RS141_x5_0018_redNissl_cropMask.npy'
p1473
NsS'RS141_x5_0018_redNissl_texMap.npy'
p1474
NsS'RS141_x5_0018_redNissl_texHist.npy'
p1475
NsS'RS141_x5_0018_redNissl_fg.npy'
p1476
NsS'RS141_x5_0018_redNissl_dirHist.npy'
p1477
NsS'RS141_x5_0018_redNissl_bg.npy'
p1478
NsS'RS141_x5_0018_redNissl_segmentation.npy'
p1479
NsssS'RS141_x5_0018.tif'
p1480
NssS'0021'
p1481
(dp1482
S'redNissl'
p1483
(dp1484
S'pipelineResults'
p1485
(dp1486
S'RS141_x5_0021_redNissl_uncropMask.npy'
p1487
NsS'RS141_x5_0021_redNissl_texMap.tif'
p1488
NsS'RS141_x5_0021_redNissl_cropImg.tif'
p1489
NsS'RS141_x5_0021_redNissl_centroids.npy'
p1490
NsS'RS141_x5_0021_redNissl_features.npy'
p1491
NsS'RS141_x5_0021_redNissl_neighbors.npy'
p1492
NsS'RS141_x5_0021_redNissl_segmentation.tif'
p1493
NsS'RS141_x5_0021_redNissl_cropMask.npy'
p1494
NsS'RS141_x5_0021_redNissl_texMap.npy'
p1495
NsS'RS141_x5_0021_redNissl_texHist.npy'
p1496
NsS'RS141_x5_0021_redNissl_fg.npy'
p1497
NsS'RS141_x5_0021_redNissl_dirHist.npy'
p1498
NsS'RS141_x5_0021_redNissl_bg.npy'
p1499
NsS'RS141_x5_0021_redNissl_segmentation.npy'
p1500
NsssS'RS141_x5_0021.tif'
p1501
NssS'0024'
p1502
(dp1503
S'redNissl'
p1504
(dp1505
S'pipelineResults'
p1506
(dp1507
S'RS141_x5_0024_redNissl_segmentation.tif'
p1508
NsS'RS141_x5_0024_redNissl_segmentation.npy'
p1509
NsS'RS141_x5_0024_redNissl_cropImg.tif'
p1510
NsS'RS141_x5_0024_redNissl_texMap.npy'
p1511
NsS'RS141_x5_0024_redNissl_uncropMask.npy'
p1512
NsS'RS141_x5_0024_redNissl_cropMask.npy'
p1513
NsS'RS141_x5_0024_redNissl_neighbors.npy'
p1514
NsS'RS141_x5_0024_redNissl_dirHist.npy'
p1515
NsS'RS141_x5_0024_redNissl_bg.npy'
p1516
NsS'RS141_x5_0024_redNissl_texHist.npy'
p1517
NsS'RS141_x5_0024_redNissl_centroids.npy'
p1518
NsS'RS141_x5_0024_redNissl_texMap.tif'
p1519
NsS'RS141_x5_0024_redNissl_features.npy'
p1520
NsS'RS141_x5_0024_redNissl_fg.npy'
p1521
NsssS'RS141_x5_0024.tif'
p1522
NssS'0010'
p1523
(dp1524
S'redNissl'
p1525
(dp1526
S'pipelineResults'
p1527
(dp1528
S'RS141_x5_0010_redNissl_texMap.npy'
p1529
NsS'RS141_x5_0010_redNissl_texHist.npy'
p1530
NsS'RS141_x5_0010_redNissl_dirHist.npy'
p1531
NsS'RS141_x5_0010_redNissl_neighbors.npy'
p1532
NsS'RS141_x5_0010_redNissl_uncropMask.npy'
p1533
NsS'RS141_x5_0010_redNissl_cropMask.npy'
p1534
NsS'RS141_x5_0010_redNissl_fg.npy'
p1535
NsS'RS141_x5_0010_redNissl_features.npy'
p1536
NsS'RS141_x5_0010_redNissl_bg.npy'
p1537
NsS'RS141_x5_0010_redNissl_segmentation.npy'
p1538
NsS'RS141_x5_0010_redNissl_segmentation.tif'
p1539
NsS'RS141_x5_0010_redNissl_texMap.tif'
p1540
NsS'RS141_x5_0010_redNissl_cropImg.tif'
p1541
NsssS'RS141_x5_0010.tif'
p1542
NssS'0004'
p1543
(dp1544
S'RS141_x5_0004.tif'
p1545
NsS'redNissl'
p1546
(dp1547
S'pipelineResults'
p1548
(dp1549
S'RS141_x5_0004_redNissl_segmentation.npy'
p1550
NsS'RS141_x5_0004_redNissl_features.npy'
p1551
NsS'RS141_x5_0004_redNissl_cropMask.npy'
p1552
NsS'RS141_x5_0004_redNissl_bg.npy'
p1553
NsS'RS141_x5_0004_redNissl_cropImg.tif'
p1554
NsS'RS141_x5_0004_redNissl_dirHist.npy'
p1555
NsS'RS141_x5_0004_redNissl_neighbors.npy'
p1556
NsS'RS141_x5_0004_redNissl_segmentation.tif'
p1557
NsS'RS141_x5_0004_redNissl_texMap.tif'
p1558
NsS'RS141_x5_0004_redNissl_texMap.npy'
p1559
NsS'RS141_x5_0004_redNissl_texHist.npy'
p1560
NsS'RS141_x5_0004_redNissl_fg.npy'
p1561
NsS'RS141_x5_0004_redNissl_uncropMask.npy'
p1562
NssssS'0023'
p1563
(dp1564
S'redNissl'
p1565
(dp1566
S'pipelineResults'
p1567
(dp1568
S'RS141_x5_0023_redNissl_cropMask.npy'
p1569
NsS'RS141_x5_0023_redNissl_segmentation.tif'
p1570
NsS'RS141_x5_0023_redNissl_dirHist.npy'
p1571
NsS'RS141_x5_0023_redNissl_features.npy'
p1572
NsS'RS141_x5_0023_redNissl_texHist.npy'
p1573
NsS'RS141_x5_0023_redNissl_segmentation.npy'
p1574
NsS'RS141_x5_0023_redNissl_uncropMask.npy'
p1575
NsS'RS141_x5_0023_redNissl_centroids.npy'
p1576
NsS'RS141_x5_0023_redNissl_texMap.tif'
p1577
NsS'RS141_x5_0023_redNissl_bg.npy'
p1578
NsS'RS141_x5_0023_redNissl_cropImg.tif'
p1579
NsS'RS141_x5_0023_redNissl_neighbors.npy'
p1580
NsS'RS141_x5_0023_redNissl_fg.npy'
p1581
NsS'RS141_x5_0023_redNissl_texMap.npy'
p1582
NsssS'RS141_x5_0023.tif'
p1583
NssS'0020'
p1584
(dp1585
S'redNissl'
p1586
(dp1587
S'pipelineResults'
p1588
(dp1589
S'RS141_x5_0020_redNissl_features.npy'
p1590
NsS'RS141_x5_0020_redNissl_neighbors.npy'
p1591
NsS'RS141_x5_0020_redNissl_fg.npy'
p1592
NsS'RS141_x5_0020_redNissl_segmentation.tif'
p1593
NsS'RS141_x5_0020_redNissl_texMap.tif'
p1594
NsS'RS141_x5_0020_redNissl_cropImg.tif'
p1595
NsS'RS141_x5_0020_redNissl_texMap.npy'
p1596
NsS'RS141_x5_0020_redNissl_uncropMask.npy'
p1597
NsS'RS141_x5_0020_redNissl_texHist.npy'
p1598
NsS'RS141_x5_0020_redNissl_bg.npy'
p1599
NsS'RS141_x5_0020_redNissl_cropMask.npy'
p1600
NsS'RS141_x5_0020_redNissl_centroids.npy'
p1601
NsS'RS141_x5_0020_redNissl_segmentation.npy'
p1602
NsS'RS141_x5_0020_redNissl_dirHist.npy'
p1603
NsssS'RS141_x5_0020.tif'
p1604
NssS'0007'
p1605
(dp1606
S'redNissl'
p1607
(dp1608
S'pipelineResults'
p1609
(dp1610
S'RS141_x5_0007_redNissl_uncropMask.npy'
p1611
NsS'RS141_x5_0007_redNissl_texMap.tif'
p1612
NsS'RS141_x5_0007_redNissl_cropImg.tif'
p1613
NsS'RS141_x5_0007_redNissl_features.npy'
p1614
NsS'RS141_x5_0007_redNissl_neighbors.npy'
p1615
NsS'RS141_x5_0007_redNissl_segmentation.tif'
p1616
NsS'RS141_x5_0007_redNissl_cropMask.npy'
p1617
NsS'RS141_x5_0007_redNissl_texMap.npy'
p1618
NsS'RS141_x5_0007_redNissl_texHist.npy'
p1619
NsS'RS141_x5_0007_redNissl_fg.npy'
p1620
NsS'RS141_x5_0007_redNissl_dirHist.npy'
p1621
NsS'RS141_x5_0007_redNissl_bg.npy'
p1622
NsS'RS141_x5_0007_redNissl_segmentation.npy'
p1623
NsssS'RS141_x5_0007.tif'
p1624
NssS'0000'
p1625
(dp1626
S'nissl324'
p1627
(dp1628
S'pipelineResults'
p1629
(dp1630
S'RS141_x5_0000_nissl324_texHist.npy'
p1631
NsS'RS141_x5_0000_nissl324_labelmap.png'
p1632
NsS'RS141_x5_0000_nissl324_cropImg.tif'
p1633
NsS'RS141_x5_0000_nissl324_texMap.npy'
p1634
NsS'RS141_x5_0000_nissl324_segmentation.tif'
p1635
NsS'RS141_x5_0000_nissl324_texMap.tif'
p1636
NsS'RS141_x5_0000_nissl324_labelmap.npy'
p1637
NsS'RS141_x5_0000_nissl324_labels.npy'
p1638
NsS'RS141_x5_0000_nissl324_cropImg.png'
p1639
NsS'RS141_x5_0000_nissl324_segmentation.npy'
p1640
NsS'RS141_x5_0000_nissl324_segmentation.png'
p1641
NsS'RS141_x5_0000_nissl324_texMap.png'
p1642
NsS'stages'
p1643
(dp1644
S'sigscore9.png'
p1645
NsS'sigscore7.png'
p1646
NsS'sigscore3.png'
p1647
NsS'curr_cluster3.png'
p1648
NsS'grow1.png'
p1649
NsS'grow0.png'
p1650
NsS'grow2.png'
p1651
NsS'curr_cluster9.png'
p1652
NsS'grow9.png'
p1653
NsS'grow8.png'
p1654
NsS'grow5.png'
p1655
NsS'grow4.png'
p1656
NsS'grow6.png'
p1657
NsS'weight8.png'
p1658
NsS'weight5.png'
p1659
NsS'weight7.png'
p1660
NsS'curr_cluster5.png'
p1661
NsS'sigscore6.png'
p1662
NsS'sigscore4.png'
p1663
NsS'grow7.png'
p1664
NsS'curr_cluster6.png'
p1665
NsS'curr_cluster4.png'
p1666
NsS'weight6.png'
p1667
NsS'weight1.png'
p1668
NsS'weight2.png'
p1669
NsS'weight3.png'
p1670
NsS'sigscore8.png'
p1671
NsS'sigscore5.png'
p1672
NsS'sigscore2.png'
p1673
NsS'sigscore1.png'
p1674
NsS'sigscore0.png'
p1675
NsS'curr_cluster2.png'
p1676
NsS'curr_cluster1.png'
p1677
NsS'curr_cluster0.png'
p1678
NsS'grow3.png'
p1679
NsS'weight4.png'
p1680
NsS'curr_cluster7.png'
p1681
NsS'curr_cluster8.png'
p1682
NsS'weight0.png'
p1683
NsS'weight9.png'
p1684
NssS'RS141_x5_0000_nissl324_labelmap.tif'
p1685
NsS'RS141_x5_0000_nissl324_dirHist.npy'
p1686
NsS'RS141_x5_0000_nissl324_features.npy'
p1687
NsssS'redNissl'
p1688
(dp1689
S'pipelineResults'
p1690
(dp1691
S'RS141_x5_0000_redNissl_texHist.npy'
p1692
NsS'RS141_x5_0000_redNissl_cropImg.tif'
p1693
NsS'RS141_x5_0000_redNissl_texMap.npy'
p1694
NsS'RS141_x5_0000_redNissl_fg.npy'
p1695
NsS'RS141_x5_0000_redNissl_dirHist.npy'
p1696
NsS'RS141_x5_0000_redNissl_uncropMask.npy'
p1697
NsS'RS141_x5_0000_redNissl_neighbors.npy'
p1698
NsS'RS141_x5_0000_redNissl_texMap.tif'
p1699
NsS'RS141_x5_0000_redNissl_bg.npy'
p1700
NsS'RS141_x5_0000_redNissl_segmentation.npy'
p1701
NsS'RS141_x5_0000_redNissl_cropMask.npy'
p1702
NsS'RS141_x5_0000_redNissl_segmentation.tif'
p1703
NsS'RS141_x5_0000_redNissl_features.npy'
p1704
NsssS'RS141_x5_0000.tif'
p1705
NssS'0001'
p1706
(dp1707
S'redNissl'
p1708
(dp1709
S'labelings'
p1710
(dp1711
S'RS141_x5_0001_redNissl_models.pkl'
p1712
NssS'pipelineResults'
p1713
(dp1714
S'RS141_x5_0001_redNissl_features.npy'
p1715
NsS'RS141_x5_0001_redNissl_segmentation.png'
p1716
NsS'RS141_x5_0001_redNissl_texMap.png'
p1717
NsS'RS141_x5_0001_redNissl_cropMask.npy'
p1718
NsS'RS141_x5_0001_redNissl_uncropMask.npy'
p1719
NsS'RS141_x5_0001_redNissl_texMap.tif'
p1720
NsS'RS141_x5_0001_redNissl_centroids.npy'
p1721
NsS'RS141_x5_0001_redNissl_texHist.npy'
p1722
NsS'RS141_x5_0001_redNissl_bg.npy'
p1723
NsS'RS141_x5_0001_redNissl_texMap.npy'
p1724
NsS'RS141_x5_0001_redNissl_cropImg.png'
p1725
NsS'RS141_x5_0001_redNissl_dirHist.npy'
p1726
NsS'RS141_x5_0001_redNissl_cropImg.tif'
p1727
NsS'RS141_x5_0001_redNissl_fg.npy'
p1728
NsS'RS141_x5_0001_redNissl_neighbors.npy'
p1729
NsS'RS141_x5_0001_redNissl_segmentation.npy'
p1730
NsS'RS141_x5_0001_redNissl_segmentation.tif'
p1731
NsssS'RS141_x5_0001.tif'
p1732
NssS'0002'
p1733
(dp1734
S'redNissl'
p1735
(dp1736
S'pipelineResults'
p1737
(dp1738
S'141_x5_0002_redNissl_texMap.npy'
p1739
NsS'RS141_x5_0002_redNissl_segmentation.tif'
p1740
NsS'RS141_x5_0002_redNissl_cropMask.npy'
p1741
NsS'RS141_x5_0002_redNissl_texMap.tif'
p1742
NsS'RS141_x5_0002_redNissl_cropImg.tif'
p1743
NsS'RS141_x5_0002_redNissl_texMap.npy'
p1744
NsS'RS141_x5_0002_redNissl_segmentation.png'
p1745
NsS'RS141_x5_0002_redNissl_uncropMask.npy'
p1746
NsS'RS141_x5_0002_redNissl_texHist.npy'
p1747
NsS'RS141_x5_0002_redNissl_segmentation.npy'
p1748
NsS'RS141_x5_0002_redNissl_bg.npy'
p1749
NsS'RS141_x5_0002_redNissl_cropImg.png'
p1750
NsS'RS141_x5_0002_redNissl_neighbors.npy'
p1751
NsS'RS141_x5_0002_redNissl_dirHist.npy'
p1752
NsS'RS141_x5_0002_redNissl_texMap.png'
p1753
NsS'RS141_x5_0002_redNissl_features.npy'
p1754
NsS'RS141_x5_0002_redNissl_fg.npy'
p1755
NsssS'RS141_x5_0002.tif'
p1756
NssS'0003'
p1757
(dp1758
S'redNissl'
p1759
(dp1760
S'pipelineResults'
p1761
(dp1762
S'RS141_x5_0003_redNissl_neighbors.npy'
p1763
NsS'RS141_x5_0003_redNissl_fg.npy'
p1764
NsS'RS141_x5_0003_redNissl_features.npy'
p1765
NsS'RS141_x5_0003_redNissl_uncropMask.npy'
p1766
NsS'RS141_x5_0003_redNissl_segmentation.tif'
p1767
NsS'RS141_x5_0003_redNissl_texHist.npy'
p1768
NsS'RS141_x5_0003_redNissl_bg.npy'
p1769
NsS'RS141_x5_0003_redNissl_segmentation.npy'
p1770
NsS'RS141_x5_0003_redNissl_texMap.npy'
p1771
NsS'RS141_x5_0003_redNissl_texMap.tif'
p1772
NsS'RS141_x5_0003_redNissl_dirHist.npy'
p1773
NsS'RS141_x5_0003_redNissl_cropMask.npy'
p1774
NsS'RS141_x5_0003_redNissl_cropImg.tif'
p1775
NsssS'RS141_x5_0003.tif'
p1776
NssS'0008'
p1777
(dp1778
S'redNissl'
p1779
(dp1780
S'pipelineResults'
p1781
(dp1782
S'RS141_x5_0008_redNissl_fg.npy'
p1783
NsS'RS141_x5_0008_redNissl_cropMask.npy'
p1784
NsS'RS141_x5_0008_redNissl_texMap.tif'
p1785
NsS'RS141_x5_0008_redNissl_features.npy'
p1786
NsS'RS141_x5_0008_redNissl_texHist.npy'
p1787
NsS'RS141_x5_0008_redNissl_segmentation.npy'
p1788
NsS'RS141_x5_0008_redNissl_dirHist.npy'
p1789
NsS'RS141_x5_0008_redNissl_texMap.npy'
p1790
NsS'RS141_x5_0008_redNissl_segmentation.tif'
p1791
NsS'RS141_x5_0008_redNissl_uncropMask.npy'
p1792
NsS'RS141_x5_0008_redNissl_bg.npy'
p1793
NsS'RS141_x5_0008_redNissl_neighbors.npy'
p1794
NsS'RS141_x5_0008_redNissl_cropImg.tif'
p1795
NsssS'RS141_x5_0008.tif'
p1796
NssS'0009'
p1797
(dp1798
S'redNissl'
p1799
(dp1800
S'pipelineResults'
p1801
(dp1802
S'RS141_x5_0009_redNissl_texMap.tif'
p1803
NsS'RS141_x5_0009_redNissl_fg.npy'
p1804
NsS'RS141_x5_0009_redNissl_bg.npy'
p1805
NsS'RS141_x5_0009_redNissl_neighbors.npy'
p1806
NsS'RS141_x5_0009_redNissl_texMap.npy'
p1807
NsS'RS141_x5_0009_redNissl_features.npy'
p1808
NsS'RS141_x5_0009_redNissl_segmentation.tif'
p1809
NsS'RS141_x5_0009_redNissl_cropImg.tif'
p1810
NsS'RS141_x5_0009_redNissl_uncropMask.npy'
p1811
NsS'RS141_x5_0009_redNissl_texHist.npy'
p1812
NsS'RS141_x5_0009_redNissl_segmentation.npy'
p1813
NsS'RS141_x5_0009_redNissl_dirHist.npy'
p1814
NsS'RS141_x5_0009_redNissl_cropMask.npy'
p1815
NsssS'RS141_x5_0009.tif'
p1816
NssS'0016'
p1817
(dp1818
S'redNissl'
p1819
(dp1820
S'pipelineResults'
p1821
(dp1822
S'RS141_x5_0016_redNissl_texMap.tif'
p1823
NsS'RS141_x5_0016_redNissl_fg.npy'
p1824
NsS'RS141_x5_0016_redNissl_bg.npy'
p1825
NsS'RS141_x5_0016_redNissl_neighbors.npy'
p1826
NsS'RS141_x5_0016_redNissl_features.npy'
p1827
NsS'RS141_x5_0016_redNissl_segmentation.tif'
p1828
NsS'RS141_x5_0016_redNissl_cropImg.tif'
p1829
NsS'RS141_x5_0016_redNissl_uncropMask.npy'
p1830
NsS'RS141_x5_0016_redNissl_centroids.npy'
p1831
NsS'RS141_x5_0016_redNissl_texHist.npy'
p1832
NsS'RS141_x5_0016_redNissl_texMap.npy'
p1833
NsS'RS141_x5_0016_redNissl_dirHist.npy'
p1834
NsS'RS141_x5_0016_redNissl_cropMask.npy'
p1835
NsS'RS141_x5_0016_redNissl_segmentation.npy'
p1836
NsssS'RS141_x5_0016.tif'
p1837
NssssS'RS140'
p1838
(dp1839
S'x1.25'
p1840
(dp1841
S'0017'
p1842
(dp1843
S'RS140_x1.25_0017.tif'
p1844
NssS'0022'
p1845
(dp1846
S'RS140_x1.25_0022.tif'
p1847
NssS'0015'
p1848
(dp1849
S'RS140_x1.25_0015.tif'
p1850
NssS'0014'
p1851
(dp1852
S'RS140_x1.25_0014.tif'
p1853
NssS'0013'
p1854
(dp1855
S'RS140_x1.25_0013.tif'
p1856
NssS'0012'
p1857
(dp1858
S'RS140_x1.25_0012.tif'
p1859
NssS'0011'
p1860
(dp1861
S'RS140_x1.25_0011.tif'
p1862
NssS'0005'
p1863
(dp1864
S'RS140_x1.25_0005.tif'
p1865
NssS'0035'
p1866
(dp1867
S'RS140_x1.25_0035.tif'
p1868
NssS'0034'
p1869
(dp1870
S'RS140_x1.25_0034.tif'
p1871
NssS'0036'
p1872
(dp1873
S'RS140_x1.25_0036.tif'
p1874
NssS'0031'
p1875
(dp1876
S'RS140_x1.25_0031.tif'
p1877
NssS'0006'
p1878
(dp1879
S'RS140_x1.25_0006.tif'
p1880
NssS'0033'
p1881
(dp1882
S'RS140_x1.25_0033.tif'
p1883
NssS'0032'
p1884
(dp1885
S'RS140_x1.25_0032.tif'
p1886
NssS'0021'
p1887
(dp1888
S'RS140_x1.25_0021.tif'
p1889
NssS'0010'
p1890
(dp1891
S'RS140_x1.25_0010.tif'
p1892
NssS'0026'
p1893
(dp1894
S'RS140_x1.25_0026.tif'
p1895
NssS'0001'
p1896
(dp1897
S'RS140_x1.25_0001.tif'
p1898
NssS'0024'
p1899
(dp1900
S'RS140_x1.25_0024.tif'
p1901
NssS'0003'
p1902
(dp1903
S'RS140_x1.25_0003.tif'
p1904
NssS'0004'
p1905
(dp1906
S'RS140_x1.25_0004.tif'
p1907
NssS'0023'
p1908
(dp1909
S'RS140_x1.25_0023.tif'
p1910
NssS'0020'
p1911
(dp1912
S'RS140_x1.25_0020.tif'
p1913
NssS'0007'
p1914
(dp1915
S'RS140_x1.25_0007.tif'
p1916
NssS'0000'
p1917
(dp1918
S'RS140_x1.25_0000.tif'
p1919
NssS'0027'
p1920
(dp1921
S'RS140_x1.25_0027.tif'
p1922
NssS'0002'
p1923
(dp1924
S'RS140_x1.25_0002.tif'
p1925
NssS'0025'
p1926
(dp1927
S'RS140_x1.25_0025.tif'
p1928
NssS'0028'
p1929
(dp1930
S'RS140_x1.25_0028.tif'
p1931
NssS'0029'
p1932
(dp1933
S'RS140_x1.25_0029.tif'
p1934
NssS'0008'
p1935
(dp1936
S'RS140_x1.25_0008.tif'
p1937
NssS'0009'
p1938
(dp1939
S'RS140_x1.25_0009.tif'
p1940
NssS'0030'
p1941
(dp1942
S'RS140_x1.25_0030.tif'
p1943
NssS'0019'
p1944
(dp1945
S'RS140_x1.25_0019.tif'
p1946
NssS'0018'
p1947
(dp1948
S'RS140_x1.25_0018.tif'
p1949
NssS'0016'
p1950
(dp1951
S'RS140_x1.25_0016.tif'
p1952
NsssS'x20'
p1953
(dp1954
S'0017'
p1955
(dp1956
S'RS140_x20_0017.tif'
p1957
NssS'0022'
p1958
(dp1959
S'RS140_x20_0022.tif'
p1960
NssS'0015'
p1961
(dp1962
S'RS140_x20_0015.tif'
p1963
NssS'0014'
p1964
(dp1965
S'RS140_x20_0014.tif'
p1966
NssS'0013'
p1967
(dp1968
S'RS140_x20_0013.tif'
p1969
NssS'0012'
p1970
(dp1971
S'RS140_x20_0012.tif'
p1972
NssS'0011'
p1973
(dp1974
S'RS140_x20_0011.tif'
p1975
NssS'0005'
p1976
(dp1977
S'RS140_x20_0005.tif'
p1978
NssS'0035'
p1979
(dp1980
S'RS140_x20_0035.tif'
p1981
NssS'0034'
p1982
(dp1983
S'RS140_x20_0034.tif'
p1984
NssS'0036'
p1985
(dp1986
S'RS140_x20_0036.tif'
p1987
NssS'0031'
p1988
(dp1989
S'RS140_x20_0031.tif'
p1990
NssS'0006'
p1991
(dp1992
S'RS140_x20_0006.tif'
p1993
NssS'0033'
p1994
(dp1995
S'RS140_x20_0033.tif'
p1996
NssS'0032'
p1997
(dp1998
S'RS140_x20_0032.tif'
p1999
NssS'0021'
p2000
(dp2001
S'RS140_x20_0021.tif'
p2002
NssS'0010'
p2003
(dp2004
S'RS140_x20_0010.tif'
p2005
NssS'0026'
p2006
(dp2007
S'RS140_x20_0026.tif'
p2008
NssS'0001'
p2009
(dp2010
S'RS140_x20_0001.tif'
p2011
NssS'0024'
p2012
(dp2013
S'RS140_x20_0024.tif'
p2014
NssS'0003'
p2015
(dp2016
S'RS140_x20_0003.tif'
p2017
NssS'0004'
p2018
(dp2019
S'RS140_x20_0004.tif'
p2020
NssS'0023'
p2021
(dp2022
S'RS140_x20_0023.tif'
p2023
NssS'0020'
p2024
(dp2025
S'RS140_x20_0020.tif'
p2026
NssS'0007'
p2027
(dp2028
S'RS140_x20_0007.tif'
p2029
NssS'0000'
p2030
(dp2031
S'RS140_x20_0000.tif'
p2032
NssS'0027'
p2033
(dp2034
S'RS140_x20_0027.tif'
p2035
NssS'0002'
p2036
(dp2037
S'RS140_x20_0002.tif'
p2038
NssS'0025'
p2039
(dp2040
S'RS140_x20_0025.tif'
p2041
NssS'0028'
p2042
(dp2043
S'RS140_x20_0028.tif'
p2044
NssS'0029'
p2045
(dp2046
S'RS140_x20_0029.tif'
p2047
NssS'0008'
p2048
(dp2049
S'RS140_x20_0008.tif'
p2050
NssS'0009'
p2051
(dp2052
S'RS140_x20_0009.tif'
p2053
NssS'0030'
p2054
(dp2055
S'RS140_x20_0030.tif'
p2056
NssS'0019'
p2057
(dp2058
S'RS140_x20_0019.tif'
p2059
NssS'0018'
p2060
(dp2061
S'RS140_x20_0018.tif'
p2062
NssS'0016'
p2063
(dp2064
S'RS140_x20_0016.tif'
p2065
NsssS'x5'
p2066
(dp2067
S'0017'
p2068
(dp2069
S'RS140_x5_0017.tif'
p2070
NssS'0022'
p2071
(dp2072
S'RS140_x5_0022.tif'
p2073
NssS'0015'
p2074
(dp2075
S'RS140_x5_0015.tif'
p2076
NssS'0014'
p2077
(dp2078
S'RS140_x5_0014.tif'
p2079
NssS'0013'
p2080
(dp2081
S'RS140_x5_0013.tif'
p2082
NssS'0012'
p2083
(dp2084
S'RS140_x5_0012.tif'
p2085
NssS'0011'
p2086
(dp2087
S'RS140_x5_0011.tif'
p2088
NssS'0005'
p2089
(dp2090
S'RS140_x5_0005.tif'
p2091
NssS'0035'
p2092
(dp2093
S'RS140_x5_0035.tif'
p2094
NssS'0034'
p2095
(dp2096
S'RS140_x5_0034.tif'
p2097
NssS'0036'
p2098
(dp2099
S'RS140_x5_0036.tif'
p2100
NssS'0031'
p2101
(dp2102
S'RS140_x5_0031.tif'
p2103
NssS'0006'
p2104
(dp2105
S'RS140_x5_0006.tif'
p2106
NssS'0033'
p2107
(dp2108
S'RS140_x5_0033.tif'
p2109
NssS'0032'
p2110
(dp2111
S'RS140_x5_0032.tif'
p2112
NssS'0021'
p2113
(dp2114
S'RS140_x5_0021.tif'
p2115
NssS'0010'
p2116
(dp2117
S'RS140_x5_0010.tif'
p2118
NssS'0026'
p2119
(dp2120
S'RS140_x5_0026.tif'
p2121
NssS'0001'
p2122
(dp2123
S'RS140_x5_0001.tif'
p2124
NssS'0024'
p2125
(dp2126
S'RS140_x5_0024.tif'
p2127
NssS'0003'
p2128
(dp2129
S'RS140_x5_0003.tif'
p2130
NssS'0004'
p2131
(dp2132
S'RS140_x5_0004.tif'
p2133
NssS'0023'
p2134
(dp2135
S'RS140_x5_0023.tif'
p2136
NssS'0020'
p2137
(dp2138
S'RS140_x5_0020.tif'
p2139
NssS'0007'
p2140
(dp2141
S'RS140_x5_0007.tif'
p2142
NssS'0000'
p2143
(dp2144
S'RS140_x5_0000.tif'
p2145
NssS'0027'
p2146
(dp2147
S'RS140_x5_0027.tif'
p2148
NssS'0002'
p2149
(dp2150
S'RS140_x5_0002.tif'
p2151
NssS'0025'
p2152
(dp2153
S'RS140_x5_0025.tif'
p2154
NssS'0028'
p2155
(dp2156
S'RS140_x5_0028.tif'
p2157
NssS'0029'
p2158
(dp2159
S'RS140_x5_0029.tif'
p2160
NssS'0008'
p2161
(dp2162
S'RS140_x5_0008.tif'
p2163
NssS'0009'
p2164
(dp2165
S'RS140_x5_0009.tif'
p2166
NssS'0030'
p2167
(dp2168
S'RS140_x5_0030.tif'
p2169
NssS'0019'
p2170
(dp2171
S'RS140_x5_0019.tif'
p2172
NssS'0018'
p2173
(dp2174
S'RS140_x5_0018.tif'
p2175
NssS'0016'
p2176
(dp2177
S'RS140_x5_0016.tif'
p2178
Nsssss.