(dp1
S'DavidData'
p2
(dp3
S'RS139'
p4
(dp5
S'x1.25'
p6
(dp7
S'0017'
p8
(dp9
S'RS139_x1.25_0017.tif'
p10
NssS'0022'
p11
(dp12
S'RS139_x1.25_0022.tif'
p13
NssS'0015'
p14
(dp15
S'RS139_x1.25_0015.tif'
p16
NssS'0014'
p17
(dp18
S'RS139_x1.25_0014.tif'
p19
NssS'0013'
p20
(dp21
S'RS139_x1.25_0013.tif'
p22
NssS'0012'
p23
(dp24
S'RS139_x1.25_0012.tif'
p25
NssS'0011'
p26
(dp27
S'RS139_x1.25_0011.tif'
p28
NssS'0005'
p29
(dp30
S'RS139_x1.25_0005.tif'
p31
NssS'0031'
p32
(dp33
S'RS139_x1.25_0031.tif'
p34
NssS'0006'
p35
(dp36
S'RS139_x1.25_0006.tif'
p37
NssS'0033'
p38
(dp39
S'RS139_x1.25_0033.tif'
p40
NssS'0032'
p41
(dp42
S'RS139_x1.25_0032.tif'
p43
NssS'0021'
p44
(dp45
S'RS139_x1.25_0021.tif'
p46
NssS'0010'
p47
(dp48
S'RS139_x1.25_0010.tif'
p49
NssS'0026'
p50
(dp51
S'RS139_x1.25_0026.tif'
p52
NssS'0001'
p53
(dp54
S'RS139_x1.25_0001.tif'
p55
NssS'0024'
p56
(dp57
S'RS139_x1.25_0024.tif'
p58
NssS'0003'
p59
(dp60
S'RS139_x1.25_0003.tif'
p61
NssS'0004'
p62
(dp63
S'RS139_x1.25_0004.tif'
p64
NssS'0023'
p65
(dp66
S'RS139_x1.25_0023.tif'
p67
NssS'0020'
p68
(dp69
S'RS139_x1.25_0020.tif'
p70
NssS'0007'
p71
(dp72
S'RS139_x1.25_0007.tif'
p73
NssS'0000'
p74
(dp75
S'RS139_x1.25_0000.tif'
p76
NssS'0027'
p77
(dp78
S'RS139_x1.25_0027.tif'
p79
NssS'0002'
p80
(dp81
S'RS139_x1.25_0002.tif'
p82
NssS'0025'
p83
(dp84
S'RS139_x1.25_0025.tif'
p85
NssS'0028'
p86
(dp87
S'RS139_x1.25_0028.tif'
p88
NssS'0029'
p89
(dp90
S'RS139_x1.25_0029.tif'
p91
NssS'0008'
p92
(dp93
S'RS139_x1.25_0008.tif'
p94
NssS'0009'
p95
(dp96
S'RS139_x1.25_0009.tif'
p97
NssS'0030'
p98
(dp99
S'RS139_x1.25_0030.tif'
p100
NssS'0019'
p101
(dp102
S'RS139_x1.25_0019.tif'
p103
NssS'0018'
p104
(dp105
S'RS139_x1.25_0018.tif'
p106
NssS'0016'
p107
(dp108
S'RS139_x1.25_0016.tif'
p109
NsssS'x20'
p110
(dp111
S'0017'
p112
(dp113
S'RS139_x20_0017.tif'
p114
NssS'0022'
p115
(dp116
S'RS139_x20_0022.tif'
p117
NssS'0015'
p118
(dp119
S'RS139_x20_0015.tif'
p120
NssS'0014'
p121
(dp122
S'RS139_x20_0014.tif'
p123
NssS'0013'
p124
(dp125
S'RS139_x20_0013.tif'
p126
NssS'0012'
p127
(dp128
S'RS139_x20_0012.tif'
p129
NssS'0011'
p130
(dp131
S'RS139_x20_0011.tif'
p132
NssS'0005'
p133
(dp134
S'RS139_x20_0005.tif'
p135
NssS'0006'
p136
(dp137
S'RS139_x20_0006.tif'
p138
NssS'0019'
p139
(dp140
S'RS139_x20_0019.tif'
p141
NssS'0018'
p142
(dp143
S'RS139_x20_0018.tif'
p144
NssS'0021'
p145
(dp146
S'RS139_x20_0021.tif'
p147
NssS'0010'
p148
(dp149
S'RS139_x20_0010.tif'
p150
NssS'0026'
p151
(dp152
S'RS139_x20_0026.tif'
p153
NssS'0001'
p154
(dp155
S'RS139_x20_0001.tif'
p156
NssS'0024'
p157
(dp158
S'RS139_x20_0024.tif'
p159
NssS'0003'
p160
(dp161
S'RS139_x20_0003.tif'
p162
NssS'0004'
p163
(dp164
S'RS139_x20_0004.tif'
p165
NssS'0023'
p166
(dp167
S'RS139_x20_0023.tif'
p168
NssS'0020'
p169
(dp170
S'RS139_x20_0020.tif'
p171
NssS'0007'
p172
(dp173
S'RS139_x20_0007.tif'
p174
NssS'0000'
p175
(dp176
S'RS139_x20_0000.tif'
p177
NssS'0027'
p178
(dp179
S'RS139_x20_0027.tif'
p180
NssS'0002'
p181
(dp182
S'RS139_x20_0002.tif'
p183
NssS'0025'
p184
(dp185
S'RS139_x20_0025.tif'
p186
NssS'0028'
p187
(dp188
S'RS139_x20_0028.tif'
p189
NssS'0008'
p190
(dp191
S'RS139_x20_0008.tif'
p192
NssS'0009'
p193
(dp194
S'RS139_x20_0009.tif'
p195
NssS'0016'
p196
(dp197
S'RS139_x20_0016.tif'
p198
NsssS'x5'
p199
(dp200
S'0017'
p201
(dp202
S'RS139_x5_0017.tif'
p203
NssS'0022'
p204
(dp205
S'RS139_x5_0022.tif'
p206
NssS'0015'
p207
(dp208
S'RS139_x5_0015.tif'
p209
NssS'0014'
p210
(dp211
S'RS139_x5_0014.tif'
p212
NssS'0013'
p213
(dp214
S'RS139_x5_0013.tif'
p215
NssS'0012'
p216
(dp217
S'RS139_x5_0012.tif'
p218
NssS'0011'
p219
(dp220
S'RS139_x5_0011.tif'
p221
NssS'0005'
p222
(dp223
S'RS139_x5_0005.tif'
p224
NssS'0031'
p225
(dp226
S'RS139_x5_0031.tif'
p227
NssS'0006'
p228
(dp229
S'RS139_x5_0006.tif'
p230
NssS'0033'
p231
(dp232
S'RS139_x5_0033.tif'
p233
NssS'0032'
p234
(dp235
S'RS139_x5_0032.tif'
p236
NssS'0021'
p237
(dp238
S'RS139_x5_0021.tif'
p239
NssS'0010'
p240
(dp241
S'RS139_x5_0010.tif'
p242
NssS'0026'
p243
(dp244
S'RS139_x5_0026.tif'
p245
NssS'0001'
p246
(dp247
S'RS139_x5_0001.tif'
p248
NssS'0024'
p249
(dp250
S'RS139_x5_0024.tif'
p251
NssS'0003'
p252
(dp253
S'RS139_x5_0003.tif'
p254
NssS'0004'
p255
(dp256
S'RS139_x5_0004.tif'
p257
NssS'0023'
p258
(dp259
S'RS139_x5_0023.tif'
p260
NssS'0020'
p261
(dp262
S'RS139_x5_0020.tif'
p263
NssS'0007'
p264
(dp265
S'RS139_x5_0007.tif'
p266
NssS'0000'
p267
(dp268
S'RS139_x5_0000.tif'
p269
NssS'0027'
p270
(dp271
S'RS139_x5_0027.tif'
p272
NssS'0002'
p273
(dp274
S'RS139_x5_0002.tif'
p275
NssS'0025'
p276
(dp277
S'RS139_x5_0025.tif'
p278
NssS'0028'
p279
(dp280
S'RS139_x5_0028.tif'
p281
NssS'0029'
p282
(dp283
S'RS139_x5_0029.tif'
p284
NssS'0008'
p285
(dp286
S'RS139_x5_0008.tif'
p287
NssS'0009'
p288
(dp289
S'RS139_x5_0009.tif'
p290
NssS'0030'
p291
(dp292
S'RS139_x5_0030.tif'
p293
NssS'0019'
p294
(dp295
S'RS139_x5_0019.tif'
p296
NssS'0018'
p297
(dp298
S'RS139_x5_0018.tif'
p299
NssS'0016'
p300
(dp301
S'RS139_x5_0016.tif'
p302
NssssS'RI6'
p303
(dp304
S'x1.25'
p305
(dp306
S'0017'
p307
(dp308
S'RI6_x1.25_0017.tif'
p309
NssS'0004'
p310
(dp311
S'RI6_x1.25_0004.tif'
p312
NssS'0015'
p313
(dp314
S'RI6_x1.25_0015.tif'
p315
NssS'0014'
p316
(dp317
S'RI6_x1.25_0014.tif'
p318
NssS'0013'
p319
(dp320
S'RI6_x1.25_0013.tif'
p321
NssS'0012'
p322
(dp323
S'RI6_x1.25_0012.tif'
p324
NssS'0011'
p325
(dp326
S'RI6_x1.25_0011.tif'
p327
NssS'0005'
p328
(dp329
S'RI6_x1.25_0005.tif'
p330
NssS'0035'
p331
(dp332
S'RI6_x1.25_0035.tif'
p333
NssS'0034'
p334
(dp335
S'RI6_x1.25_0034.tif'
p336
NssS'0037'
p337
(dp338
S'RI6_x1.25_0037.tif'
p339
NssS'0026'
p340
(dp341
S'RI6_x1.25_0026.tif'
p342
NssS'0031'
p343
(dp344
S'RI6_x1.25_0031.tif'
p345
NssS'0006'
p346
(dp347
S'RI6_x1.25_0006.tif'
p348
NssS'0033'
p349
(dp350
S'RI6_x1.25_0033.tif'
p351
NssS'0032'
p352
(dp353
S'RI6_x1.25_0032.tif'
p354
NssS'0044'
p355
(dp356
S'RI6_x1.25_0044.tif'
p357
NssS'0021'
p358
(dp359
S'RI6_x1.25_0021.tif'
p360
NssS'0010'
p361
(dp362
S'RI6_x1.25_0010.tif'
p363
NssS'0039'
p364
(dp365
S'RI6_x1.25_0039.tif'
p366
NssS'0029'
p367
(dp368
S'RI6_x1.25_0029.tif'
p369
NssS'0038'
p370
(dp371
S'RI6_x1.25_0038.tif'
p372
NssS'0024'
p373
(dp374
S'RI6_x1.25_0024.tif'
p375
NssS'0003'
p376
(dp377
S'RI6_x1.25_0003.tif'
p378
NssS'0036'
p379
(dp380
S'RI6_x1.25_0036.tif'
p381
NssS'0047'
p382
(dp383
S'RI6_x1.25_0047.tif'
p384
NssS'0028'
p385
(dp386
S'RI6_x1.25_0028.tif'
p387
NssS'0048'
p388
(dp389
S'RI6_x1.25_0048.tif'
p390
NssS'0023'
p391
(dp392
S'RI6_x1.25_0023.tif'
p393
NssS'0020'
p394
(dp395
S'RI6_x1.25_0020.tif'
p396
NssS'0007'
p397
(dp398
S'RI6_x1.25_0007.tif'
p399
NssS'0000'
p400
(dp401
S'RI6_x1.25_0000.tif'
p402
NssS'0027'
p403
(dp404
S'RI6_x1.25_0027.tif'
p405
NssS'0002'
p406
(dp407
S'RI6_x1.25_0002.tif'
p408
NssS'0025'
p409
(dp410
S'RI6_x1.25_0025.tif'
p411
NssS'0040'
p412
(dp413
S'RI6_x1.25_0040.tif'
p414
NssS'0041'
p415
(dp416
S'RI6_x1.25_0041.tif'
p417
NssS'0042'
p418
(dp419
S'RI6_x1.25_0042.tif'
p420
NssS'0043'
p421
(dp422
S'RI6_x1.25_0043.tif'
p423
NssS'0008'
p424
(dp425
S'RI6_x1.25_0008.tif'
p426
NssS'0009'
p427
(dp428
S'RI6_x1.25_0009.tif'
p429
NssS'0046'
p430
(dp431
S'RI6_x1.25_0046.tif'
p432
NssS'0030'
p433
(dp434
S'RI6_x1.25_0030.tif'
p435
NssS'0022'
p436
(dp437
S'RI6_x1.25_0022.tif'
p438
NssS'0019'
p439
(dp440
S'RI6_x1.25_0019.tif'
p441
NssS'0018'
p442
(dp443
S'RI6_x1.25_0018.tif'
p444
NssS'0001'
p445
(dp446
S'RI6_x1.25_0001.tif'
p447
NssS'0016'
p448
(dp449
S'RI6_x1.25_0016.tif'
p450
NssS'0045'
p451
(dp452
S'RI6_x1.25_0045.tif'
p453
NsssS'x5'
p454
(dp455
S'0017'
p456
(dp457
S'RI6_x5_0017.tif'
p458
NssS'0004'
p459
(dp460
S'RI6_x5_0004.tif'
p461
NssS'0015'
p462
(dp463
S'RI6_x5_0015.tif'
p464
NssS'0014'
p465
(dp466
S'RI6_x5_0014.tif'
p467
NssS'0013'
p468
(dp469
S'RI6_x5_0013.tif'
p470
NssS'0012'
p471
(dp472
S'RI6_x5_0012.tif'
p473
NssS'0011'
p474
(dp475
S'RI6_x5_0011.tif'
p476
NssS'0005'
p477
(dp478
S'RI6_x5_0005.tif'
p479
NssS'0035'
p480
(dp481
S'RI6_x5_0035.tif'
p482
NssS'0034'
p483
(dp484
S'RI6_x5_0034.tif'
p485
NssS'0037'
p486
(dp487
S'RI6_x5_0037.tif'
p488
NssS'0026'
p489
(dp490
S'RI6_x5_0026.tif'
p491
NssS'0031'
p492
(dp493
S'RI6_x5_0031.tif'
p494
NssS'0006'
p495
(dp496
S'RI6_x5_0006.tif'
p497
NssS'0033'
p498
(dp499
S'RI6_x5_0033.tif'
p500
NssS'0032'
p501
(dp502
S'RI6_x5_0032.tif'
p503
NssS'0044'
p504
(dp505
S'RI6_x5_0044.tif'
p506
NssS'0021'
p507
(dp508
S'RI6_x5_0021.tif'
p509
NssS'0010'
p510
(dp511
S'RI6_x5_0010.tif'
p512
NssS'0039'
p513
(dp514
S'RI6_x5_0039.tif'
p515
NssS'0029'
p516
(dp517
S'RI6_x5_0029.tif'
p518
NssS'0038'
p519
(dp520
S'RI6_x5_0038.tif'
p521
NssS'0024'
p522
(dp523
S'RI6_x5_0024.tif'
p524
NssS'0003'
p525
(dp526
S'RI6_x5_0003.tif'
p527
NssS'0036'
p528
(dp529
S'RI6_x5_0036.tif'
p530
NssS'0047'
p531
(dp532
S'RI6_x5_0047.tif'
p533
NssS'0028'
p534
(dp535
S'RI6_x5_0028.tif'
p536
NssS'0048'
p537
(dp538
S'RI6_x5_0048.tif'
p539
NssS'0023'
p540
(dp541
S'RI6_x5_0023.tif'
p542
NssS'0020'
p543
(dp544
S'RI6_x5_0020.tif'
p545
NssS'0007'
p546
(dp547
S'RI6_x5_0007.tif'
p548
NssS'0000'
p549
(dp550
S'RI6_x5_0000.tif'
p551
NssS'0027'
p552
(dp553
S'RI6_x5_0027.tif'
p554
NssS'0002'
p555
(dp556
S'RI6_x5_0002.tif'
p557
NssS'0025'
p558
(dp559
S'RI6_x5_0025.tif'
p560
NssS'0040'
p561
(dp562
S'RI6_x5_0040.tif'
p563
NssS'0041'
p564
(dp565
S'RI6_x5_0041.tif'
p566
NssS'0042'
p567
(dp568
S'RI6_x5_0042.tif'
p569
NssS'0043'
p570
(dp571
S'RI6_x5_0043.tif'
p572
NssS'0008'
p573
(dp574
S'RI6_x5_0008.tif'
p575
NssS'0009'
p576
(dp577
S'RI6_x5_0009.tif'
p578
NssS'0046'
p579
(dp580
S'RI6_x5_0046.tif'
p581
NssS'0030'
p582
(dp583
S'RI6_x5_0030.tif'
p584
NssS'0022'
p585
(dp586
S'RI6_x5_0022.tif'
p587
NssS'0019'
p588
(dp589
S'RI6_x5_0019.tif'
p590
NssS'0018'
p591
(dp592
S'RI6_x5_0018.tif'
p593
NssS'0001'
p594
(dp595
S'RI6_x5_0001.tif'
p596
NssS'0016'
p597
(dp598
S'RI6_x5_0016.tif'
p599
NssS'0045'
p600
(dp601
S'RI6_x5_0045.tif'
p602
NssssS'RS58'
p603
(dp604
S'x1.25'
p605
(dp606
S'0017'
p607
(dp608
S'RS58_x1.25_0017.tif'
p609
NssS'0022'
p610
(dp611
S'RS58_x1.25_0022.tif'
p612
NssS'0015'
p613
(dp614
S'RS58_x1.25_0015.tif'
p615
NssS'0014'
p616
(dp617
S'RS58_x1.25_0014.tif'
p618
NssS'0013'
p619
(dp620
S'RS58_x1.25_0013.tif'
p621
NssS'0012'
p622
(dp623
S'RS58_x1.25_0012.tif'
p624
NssS'0011'
p625
(dp626
S'RS58_x1.25_0011.tif'
p627
NssS'0005'
p628
(dp629
S'RS58_x1.25_0005.tif'
p630
NssS'0006'
p631
(dp632
S'RS58_x1.25_0006.tif'
p633
NssS'0019'
p634
(dp635
S'RS58_x1.25_0019.tif'
p636
NssS'0018'
p637
(dp638
S'RS58_x1.25_0018.tif'
p639
NssS'0021'
p640
(dp641
S'RS58_x1.25_0021.tif'
p642
NssS'0010'
p643
(dp644
S'RS58_x1.25_0010.tif'
p645
NssS'0026'
p646
(dp647
S'RS58_x1.25_0026.tif'
p648
NssS'0001'
p649
(dp650
S'RS58_x1.25_0001.tif'
p651
NssS'0024'
p652
(dp653
S'RS58_x1.25_0024.tif'
p654
NssS'0003'
p655
(dp656
S'RS58_x1.25_0003.tif'
p657
NssS'0004'
p658
(dp659
S'RS58_x1.25_0004.tif'
p660
NssS'0023'
p661
(dp662
S'RS58_x1.25_0023.tif'
p663
NssS'0020'
p664
(dp665
S'RS58_x1.25_0020.tif'
p666
NssS'0007'
p667
(dp668
S'RS58_x1.25_0007.tif'
p669
NssS'0000'
p670
(dp671
S'RS58_x1.25_0000.tif'
p672
NssS'0027'
p673
(dp674
S'RS58_x1.25_0027.tif'
p675
NssS'0002'
p676
(dp677
S'RS58_x1.25_0002.tif'
p678
NssS'0025'
p679
(dp680
S'RS58_x1.25_0025.tif'
p681
NssS'0008'
p682
(dp683
S'RS58_x1.25_0008.tif'
p684
NssS'0009'
p685
(dp686
S'RS58_x1.25_0009.tif'
p687
NssS'0016'
p688
(dp689
S'RS58_x1.25_0016.tif'
p690
NsssS'x20'
p691
(dp692
S'0017'
p693
(dp694
S'RS58_x20_0017.tif'
p695
NssS'0022'
p696
(dp697
S'RS58_x20_0022.tif'
p698
NssS'0015'
p699
(dp700
S'RS58_x20_0015.tif'
p701
NssS'0014'
p702
(dp703
S'RS58_x20_0014.tif'
p704
NssS'0013'
p705
(dp706
S'RS58_x20_0013.tif'
p707
NssS'0012'
p708
(dp709
S'RS58_x20_0012.tif'
p710
NssS'0011'
p711
(dp712
S'RS58_x20_0011.tif'
p713
NssS'0005'
p714
(dp715
S'RS58_x20_0005.tif'
p716
NssS'0006'
p717
(dp718
S'RS58_x20_0006.tif'
p719
NssS'0019'
p720
(dp721
S'RS58_x20_0019.tif'
p722
NssS'0018'
p723
(dp724
S'RS58_x20_0018.tif'
p725
NssS'0021'
p726
(dp727
S'RS58_x20_0021.tif'
p728
NssS'0010'
p729
(dp730
S'RS58_x20_0010.tif'
p731
NssS'0026'
p732
(dp733
S'RS58_x20_0026.tif'
p734
NssS'0001'
p735
(dp736
S'RS58_x20_0001.tif'
p737
NssS'0024'
p738
(dp739
S'RS58_x20_0024.tif'
p740
NssS'0003'
p741
(dp742
S'RS58_x20_0003.tif'
p743
NssS'0004'
p744
(dp745
S'RS58_x20_0004.tif'
p746
NssS'0023'
p747
(dp748
S'RS58_x20_0023.tif'
p749
NssS'0020'
p750
(dp751
S'RS58_x20_0020.tif'
p752
NssS'0007'
p753
(dp754
S'RS58_x20_0007.tif'
p755
NssS'0000'
p756
(dp757
S'RS58_x20_0000.tif'
p758
NssS'0027'
p759
(dp760
S'RS58_x20_0027.tif'
p761
NssS'0002'
p762
(dp763
S'RS58_x20_0002.tif'
p764
NssS'0025'
p765
(dp766
S'RS58_x20_0025.tif'
p767
NssS'0008'
p768
(dp769
S'RS58_x20_0008.tif'
p770
NssS'0009'
p771
(dp772
S'RS58_x20_0009.tif'
p773
NssS'0016'
p774
(dp775
S'RS58_x20_0016.tif'
p776
NsssS'x5'
p777
(dp778
S'0017'
p779
(dp780
S'RS58_x5_0017.tif'
p781
NssS'0022'
p782
(dp783
S'RS58_x5_0022.tif'
p784
NssS'0015'
p785
(dp786
S'RS58_x5_0015.tif'
p787
NssS'0014'
p788
(dp789
S'RS58_x5_0014.tif'
p790
NssS'0013'
p791
(dp792
S'RS58_x5_0013.tif'
p793
NssS'0012'
p794
(dp795
S'RS58_x5_0012.tif'
p796
NssS'0011'
p797
(dp798
S'RS58_x5_0011.tif'
p799
NssS'0005'
p800
(dp801
S'RS58_x5_0005.tif'
p802
NssS'0006'
p803
(dp804
S'RS58_x5_0006.tif'
p805
NssS'0019'
p806
(dp807
S'RS58_x5_0019.tif'
p808
NssS'0018'
p809
(dp810
S'RS58_x5_0018.tif'
p811
NssS'0021'
p812
(dp813
S'RS58_x5_0021.tif'
p814
NssS'0010'
p815
(dp816
S'RS58_x5_0010.tif'
p817
NssS'0026'
p818
(dp819
S'RS58_x5_0026.tif'
p820
NssS'0001'
p821
(dp822
S'RS58_x5_0001.tif'
p823
NssS'0024'
p824
(dp825
S'RS58_x5_0024.tif'
p826
NssS'0003'
p827
(dp828
S'RS58_x5_0003.tif'
p829
NssS'0004'
p830
(dp831
S'RS58_x5_0004.tif'
p832
NssS'0023'
p833
(dp834
S'RS58_x5_0023.tif'
p835
NssS'0020'
p836
(dp837
S'RS58_x5_0020.tif'
p838
NssS'0007'
p839
(dp840
S'RS58_x5_0007.tif'
p841
NssS'0000'
p842
(dp843
S'RS58_x5_0000.tif'
p844
NssS'0027'
p845
(dp846
S'RS58_x5_0027.tif'
p847
NssS'0002'
p848
(dp849
S'RS58_x5_0002.tif'
p850
NssS'0025'
p851
(dp852
S'RS58_x5_0025.tif'
p853
NssS'0008'
p854
(dp855
S'RS58_x5_0008.tif'
p856
NssS'0009'
p857
(dp858
S'RS58_x5_0009.tif'
p859
NssS'0016'
p860
(dp861
S'RS58_x5_0016.tif'
p862
NssssS'RS76'
p863
(dp864
S'x5'
p865
(dp866
S'0017'
p867
(dp868
S'RS76_x5_0017.tif'
p869
NssS'0022'
p870
(dp871
S'RS76_x5_0022.tif'
p872
NssS'0015'
p873
(dp874
S'RS76_x5_0015.tif'
p875
NssS'0014'
p876
(dp877
S'RS76_x5_0014.tif'
p878
NssS'0013'
p879
(dp880
S'RS76_x5_0013.tif'
p881
NssS'0012'
p882
(dp883
S'RS76_x5_0012.tif'
p884
NssS'0011'
p885
(dp886
S'RS76_x5_0011.tif'
p887
NssS'0005'
p888
(dp889
S'RS76_x5_0005.tif'
p890
NssS'0035'
p891
(dp892
S'RS76_x5_0035.tif'
p893
NssS'0034'
p894
(dp895
S'RS76_x5_0034.tif'
p896
NssS'0031'
p897
(dp898
S'RS76_x5_0031.tif'
p899
NssS'0006'
p900
(dp901
S'RS76_x5_0006.tif'
p902
NssS'0033'
p903
(dp904
S'RS76_x5_0033.tif'
p905
NssS'0032'
p906
(dp907
S'RS76_x5_0032.tif'
p908
NssS'0021'
p909
(dp910
S'RS76_x5_0021.tif'
p911
NssS'0010'
p912
(dp913
S'RS76_x5_0010.tif'
p914
NssS'0026'
p915
(dp916
S'RS76_x5_0026.tif'
p917
NssS'0001'
p918
(dp919
S'RS76_x5_0001.tif'
p920
NssS'0024'
p921
(dp922
S'RS76_x5_0024.tif'
p923
NssS'0003'
p924
(dp925
S'RS76_x5_0003.tif'
p926
NssS'0004'
p927
(dp928
S'RS76_x5_0004.tif'
p929
NssS'0023'
p930
(dp931
S'RS76_x5_0023.tif'
p932
NssS'0020'
p933
(dp934
S'RS76_x5_0020.tif'
p935
NssS'0007'
p936
(dp937
S'RS76_x5_0007.tif'
p938
NssS'0000'
p939
(dp940
S'RS76_x5_0000.tif'
p941
NssS'0027'
p942
(dp943
S'RS76_x5_0027.tif'
p944
NssS'0002'
p945
(dp946
S'RS76_x5_0002.tif'
p947
NssS'0025'
p948
(dp949
S'RS76_x5_0025.tif'
p950
NssS'0028'
p951
(dp952
S'RS76_x5_0028.tif'
p953
NssS'0029'
p954
(dp955
S'RS76_x5_0029.tif'
p956
NssS'0008'
p957
(dp958
S'RS76_x5_0008.tif'
p959
NssS'0009'
p960
(dp961
S'RS76_x5_0009.tif'
p962
NssS'0030'
p963
(dp964
S'RS76_x5_0030.tif'
p965
NssS'0019'
p966
(dp967
S'RS76_x5_0019.tif'
p968
NssS'0018'
p969
(dp970
S'RS76_x5_0018.tif'
p971
NssS'0016'
p972
(dp973
S'RS76_x5_0016.tif'
p974
NssssS'RS155'
p975
(dp976
S'x5'
p977
(dp978
S'0017'
p979
(dp980
S'RS155_x5_0017.tif'
p981
NssS'0022'
p982
(dp983
S'RS155_x5_0022.tif'
p984
NssS'0015'
p985
(dp986
S'RS155_x5_0015.tif'
p987
NssS'0014'
p988
(dp989
S'RS155_x5_0014.tif'
p990
NssS'0013'
p991
(dp992
S'RS155_x5_0013.tif'
p993
NssS'0012'
p994
(dp995
S'RS155_x5_0012.tif'
p996
NssS'0011'
p997
(dp998
S'RS155_x5_0011.tif'
p999
NssS'0005'
p1000
(dp1001
S'RS155_x5_0005.tif'
p1002
NssS'0035'
p1003
(dp1004
S'RS155_x5_0035.tif'
p1005
NssS'0034'
p1006
(dp1007
S'RS155_x5_0034.tif'
p1008
NssS'0037'
p1009
(dp1010
S'RS155_x5_0037.tif'
p1011
NssS'0036'
p1012
(dp1013
S'RS155_x5_0036.tif'
p1014
NssS'0031'
p1015
(dp1016
S'RS155_x5_0031.tif'
p1017
NssS'0006'
p1018
(dp1019
S'RS155_x5_0006.tif'
p1020
NssS'0033'
p1021
(dp1022
S'RS155_x5_0033.tif'
p1023
NssS'0032'
p1024
(dp1025
S'RS155_x5_0032.tif'
p1026
NssS'0021'
p1027
(dp1028
S'RS155_x5_0021.tif'
p1029
NssS'0010'
p1030
(dp1031
S'RS155_x5_0010.tif'
p1032
NssS'0026'
p1033
(dp1034
S'RS155_x5_0026.tif'
p1035
NssS'0038'
p1036
(dp1037
S'RS155_x5_0038.tif'
p1038
NssS'0024'
p1039
(dp1040
S'RS155_x5_0024.tif'
p1041
NssS'0003'
p1042
(dp1043
S'RS155_x5_0003.tif'
p1044
NssS'0004'
p1045
(dp1046
S'RS155_x5_0004.tif'
p1047
NssS'0023'
p1048
(dp1049
S'RS155_x5_0023.tif'
p1050
NssS'0020'
p1051
(dp1052
S'RS155_x5_0020.tif'
p1053
NssS'0007'
p1054
(dp1055
S'RS155_x5_0007.tif'
p1056
NssS'0000'
p1057
(dp1058
S'RS155_x5_0000.tif'
p1059
NssS'0027'
p1060
(dp1061
S'RS155_x5_0027.tif'
p1062
NssS'0002'
p1063
(dp1064
S'RS155_x5_0002.tif'
p1065
NssS'0025'
p1066
(dp1067
S'RS155_x5_0025.tif'
p1068
NssS'0028'
p1069
(dp1070
S'RS155_x5_0028.tif'
p1071
NssS'0029'
p1072
(dp1073
S'RS155_x5_0029.tif'
p1074
NssS'0008'
p1075
(dp1076
S'RS155_x5_0008.tif'
p1077
NssS'0009'
p1078
(dp1079
S'RS155_x5_0009.tif'
p1080
NssS'0030'
p1081
(dp1082
S'RS155_x5_0030.tif'
p1083
NssS'0019'
p1084
(dp1085
S'RS155_x5_0019.tif'
p1086
NssS'0018'
p1087
(dp1088
S'RS155_x5_0018.tif'
p1089
NssS'0001'
p1090
(dp1091
S'RS155_x5_0001.tif'
p1092
NssS'0039'
p1093
(dp1094
S'RS155_x5_0039.tif'
p1095
NssS'0016'
p1096
(dp1097
S'RS155_x5_0016.tif'
p1098
NssssS'RS141'
p1099
(dp1100
S'x1.25'
p1101
(dp1102
S'0017'
p1103
(dp1104
S'RS141_x1.25_0017.tif'
p1105
NssS'0022'
p1106
(dp1107
S'RS141_x1.25_0022.tif'
p1108
NssS'0015'
p1109
(dp1110
S'RS141_x1.25_0015.tif'
p1111
NssS'0014'
p1112
(dp1113
S'RS141_x1.25_0014.tif'
p1114
NssS'0013'
p1115
(dp1116
S'RS141_x1.25_0013.tif'
p1117
NssS'0012'
p1118
(dp1119
S'RS141_x1.25_0012.tif'
p1120
NssS'0011'
p1121
(dp1122
S'RS141_x1.25_0011.tif'
p1123
NssS'0005'
p1124
(dp1125
S'RS141_x1.25_0005.tif'
p1126
NssS'0006'
p1127
(dp1128
S'RS141_x1.25_0006.tif'
p1129
NssS'0019'
p1130
(dp1131
S'RS141_x1.25_0019.tif'
p1132
NssS'0018'
p1133
(dp1134
S'RS141_x1.25_0018.tif'
p1135
NssS'0021'
p1136
(dp1137
S'RS141_x1.25_0021.tif'
p1138
NssS'0024'
p1139
(dp1140
S'RS141_x1.25_0024.tif'
p1141
NssS'0010'
p1142
(dp1143
S'RS141_x1.25_0010.tif'
p1144
NssS'0004'
p1145
(dp1146
S'RS141_x1.25_0004.tif'
p1147
NssS'0023'
p1148
(dp1149
S'RS141_x1.25_0023.tif'
p1150
NssS'0020'
p1151
(dp1152
S'RS141_x1.25_0020.tif'
p1153
NssS'0007'
p1154
(dp1155
S'RS141_x1.25_0007.tif'
p1156
NssS'0000'
p1157
(dp1158
S'RS141_x1.25_0000.tif'
p1159
NssS'0001'
p1160
(dp1161
S'RS141_x1.25_0001.tif'
p1162
NssS'0002'
p1163
(dp1164
S'RS141_x1.25_0002.tif'
p1165
NssS'0003'
p1166
(dp1167
S'RS141_x1.25_0003.tif'
p1168
NssS'0008'
p1169
(dp1170
S'RS141_x1.25_0008.tif'
p1171
NssS'0009'
p1172
(dp1173
S'RS141_x1.25_0009.tif'
p1174
NssS'0016'
p1175
(dp1176
S'RS141_x1.25_0016.tif'
p1177
NsssS'x20'
p1178
(dp1179
S'0017'
p1180
(dp1181
S'RS141_x20_0017.tif'
p1182
NssS'0022'
p1183
(dp1184
S'RS141_x20_0022.tif'
p1185
NssS'0015'
p1186
(dp1187
S'RS141_x20_0015.tif'
p1188
NssS'0014'
p1189
(dp1190
S'RS141_x20_0014.tif'
p1191
NssS'0013'
p1192
(dp1193
S'RS141_x20_0013.tif'
p1194
NssS'0012'
p1195
(dp1196
S'RS141_x20_0012.tif'
p1197
NssS'0011'
p1198
(dp1199
S'RS141_x20_0011.tif'
p1200
NssS'0005'
p1201
(dp1202
S'RS141_x20_0005.tif'
p1203
NssS'0006'
p1204
(dp1205
S'RS141_x20_0006.tif'
p1206
NssS'0019'
p1207
(dp1208
S'RS141_x20_0019.tif'
p1209
NssS'0018'
p1210
(dp1211
S'RS141_x20_0018.tif'
p1212
NssS'0021'
p1213
(dp1214
S'RS141_x20_0021.tif'
p1215
NssS'0024'
p1216
(dp1217
S'RS141_x20_0024.tif'
p1218
NssS'0010'
p1219
(dp1220
S'RS141_x20_0010.tif'
p1221
NssS'0004'
p1222
(dp1223
S'RS141_x20_0004.tif'
p1224
NssS'0023'
p1225
(dp1226
S'RS141_x20_0023.tif'
p1227
NssS'0020'
p1228
(dp1229
S'RS141_x20_0020.tif'
p1230
NssS'0007'
p1231
(dp1232
S'RS141_x20_0007.tif'
p1233
NssS'0000'
p1234
(dp1235
S'RS141_x20_0000.tif'
p1236
NssS'0001'
p1237
(dp1238
S'RS141_x20_0001.tif'
p1239
NssS'0002'
p1240
(dp1241
S'RS141_x20_0002.tif'
p1242
NssS'0003'
p1243
(dp1244
S'RS141_x20_0003.tif'
p1245
NssS'0008'
p1246
(dp1247
S'RS141_x20_0008.tif'
p1248
NssS'0009'
p1249
(dp1250
S'RS141_x20_0009.tif'
p1251
NssS'0016'
p1252
(dp1253
S'RS141_x20_0016.tif'
p1254
NsssS'x5'
p1255
(dp1256
S'0017'
p1257
(dp1258
S'RS141_x5_0017.tif'
p1259
NssS'0022'
p1260
(dp1261
S'RS141_x5_0022.tif'
p1262
NssS'0015'
p1263
(dp1264
S'RS141_x5_0015.tif'
p1265
NssS'0014'
p1266
(dp1267
S'RS141_x5_0014.tif'
p1268
NssS'0013'
p1269
(dp1270
S'RS141_x5_0013.tif'
p1271
NssS'0012'
p1272
(dp1273
S'RS141_x5_0012.tif'
p1274
NssS'0011'
p1275
(dp1276
S'RS141_x5_0011.tif'
p1277
NssS'0005'
p1278
(dp1279
S'RS141_x5_0005.tif'
p1280
NssS'0006'
p1281
(dp1282
S'RS141_x5_0006.tif'
p1283
NssS'0019'
p1284
(dp1285
S'RS141_x5_0019.tif'
p1286
NssS'0018'
p1287
(dp1288
S'RS141_x5_0018.tif'
p1289
NssS'0021'
p1290
(dp1291
S'RS141_x5_0021.tif'
p1292
NssS'0024'
p1293
(dp1294
S'RS141_x5_0024.tif'
p1295
NssS'0010'
p1296
(dp1297
S'RS141_x5_0010.tif'
p1298
NssS'0004'
p1299
(dp1300
S'RS141_x5_0004.tif'
p1301
NssS'0023'
p1302
(dp1303
S'RS141_x5_0023.tif'
p1304
NssS'0020'
p1305
(dp1306
S'RS141_x5_0020.tif'
p1307
NssS'0007'
p1308
(dp1309
S'RS141_x5_0007.tif'
p1310
NssS'0000'
p1311
(dp1312
S'nissl324'
p1313
(dp1314
S'pipelineResults'
p1315
(dp1316
S'RS141_x5_0000_nissl324_texHist.npy'
p1317
NsS'RS141_x5_0000_nissl324_labelmap.png'
p1318
NsS'RS141_x5_0000_nissl324_cropImg.tif'
p1319
NsS'RS141_x5_0000_nissl324_texMap.npy'
p1320
NsS'RS141_x5_0000_nissl324_segmentation.tif'
p1321
NsS'RS141_x5_0000_nissl324_texMap.tif'
p1322
NsS'RS141_x5_0000_nissl324_labelmap.npy'
p1323
NsS'RS141_x5_0000_nissl324_labels.npy'
p1324
NsS'RS141_x5_0000_nissl324_cropImg.png'
p1325
NsS'RS141_x5_0000_nissl324_segmentation.npy'
p1326
NsS'RS141_x5_0000_nissl324_segmentation.png'
p1327
NsS'RS141_x5_0000_nissl324_texMap.png'
p1328
NsS'stages'
p1329
(dp1330
S'sigscore9.png'
p1331
NsS'sigscore7.png'
p1332
NsS'sigscore3.png'
p1333
NsS'curr_cluster3.png'
p1334
NsS'grow1.png'
p1335
NsS'grow0.png'
p1336
NsS'grow2.png'
p1337
NsS'curr_cluster9.png'
p1338
NsS'grow9.png'
p1339
NsS'grow8.png'
p1340
NsS'grow5.png'
p1341
NsS'grow4.png'
p1342
NsS'grow6.png'
p1343
NsS'weight8.png'
p1344
NsS'weight5.png'
p1345
NsS'weight7.png'
p1346
NsS'curr_cluster5.png'
p1347
NsS'sigscore6.png'
p1348
NsS'sigscore4.png'
p1349
NsS'grow7.png'
p1350
NsS'curr_cluster6.png'
p1351
NsS'curr_cluster4.png'
p1352
NsS'weight6.png'
p1353
NsS'weight1.png'
p1354
NsS'weight2.png'
p1355
NsS'weight3.png'
p1356
NsS'sigscore8.png'
p1357
NsS'sigscore5.png'
p1358
NsS'sigscore2.png'
p1359
NsS'sigscore1.png'
p1360
NsS'sigscore0.png'
p1361
NsS'curr_cluster2.png'
p1362
NsS'curr_cluster1.png'
p1363
NsS'curr_cluster0.png'
p1364
NsS'grow3.png'
p1365
NsS'weight4.png'
p1366
NsS'curr_cluster7.png'
p1367
NsS'curr_cluster8.png'
p1368
NsS'weight0.png'
p1369
NsS'weight9.png'
p1370
NssS'RS141_x5_0000_nissl324_labelmap.tif'
p1371
NsS'RS141_x5_0000_nissl324_dirHist.npy'
p1372
NsS'RS141_x5_0000_nissl324_features.npy'
p1373
NsssS'RS141_x5_0000.tif'
p1374
NssS'0001'
p1375
(dp1376
S'redNissl'
p1377
(dp1378
S'labelings'
p1379
(dp1380
sS'pipelineResults'
p1381
(dp1382
S'RS141_x5_0001_redNissl_features.npy'
p1383
NsS'RS141_x5_0001_redNissl_segmentation.png'
p1384
NsS'RS141_x5_0001_redNissl_texMap.png'
p1385
NsS'RS141_x5_0001_redNissl_cropMask.npy'
p1386
NsS'RS141_x5_0001_redNissl_uncropMask.npy'
p1387
NsS'RS141_x5_0001_redNissl_texMap.tif'
p1388
NsS'RS141_x5_0001_redNissl_centroids.npy'
p1389
NsS'RS141_x5_0001_redNissl_texHist.npy'
p1390
NsS'RS141_x5_0001_redNissl_bg.npy'
p1391
NsS'RS141_x5_0001_redNissl_texMap.npy'
p1392
NsS'RS141_x5_0001_redNissl_cropImg.png'
p1393
NsS'RS141_x5_0001_redNissl_dirHist.npy'
p1394
NsS'RS141_x5_0001_redNissl_cropImg.tif'
p1395
NsS'RS141_x5_0001_redNissl_fg.npy'
p1396
NsS'RS141_x5_0001_redNissl_neighbors.npy'
p1397
NsS'RS141_x5_0001_redNissl_segmentation.npy'
p1398
NsS'RS141_x5_0001_redNissl_segmentation.tif'
p1399
NsssS'RS141_x5_0001.tif'
p1400
NssS'0002'
p1401
(dp1402
S'redNissl'
p1403
(dp1404
S'pipelineResults'
p1405
(dp1406
S'141_x5_0002_redNissl_texMap.npy'
p1407
NsS'RS141_x5_0002_redNissl_segmentation.tif'
p1408
NsS'RS141_x5_0002_redNissl_cropMask.npy'
p1409
NsS'RS141_x5_0002_redNissl_texMap.tif'
p1410
NsS'RS141_x5_0002_redNissl_cropImg.tif'
p1411
NsS'RS141_x5_0002_redNissl_texMap.npy'
p1412
NsS'RS141_x5_0002_redNissl_segmentation.png'
p1413
NsS'RS141_x5_0002_redNissl_uncropMask.npy'
p1414
NsS'RS141_x5_0002_redNissl_texHist.npy'
p1415
NsS'RS141_x5_0002_redNissl_segmentation.npy'
p1416
NsS'RS141_x5_0002_redNissl_bg.npy'
p1417
NsS'RS141_x5_0002_redNissl_cropImg.png'
p1418
NsS'RS141_x5_0002_redNissl_neighbors.npy'
p1419
NsS'RS141_x5_0002_redNissl_dirHist.npy'
p1420
NsS'RS141_x5_0002_redNissl_texMap.png'
p1421
NsS'RS141_x5_0002_redNissl_features.npy'
p1422
NsS'RS141_x5_0002_redNissl_fg.npy'
p1423
NsssS'RS141_x5_0002.tif'
p1424
NssS'0003'
p1425
(dp1426
S'RS141_x5_0003.tif'
p1427
NssS'0008'
p1428
(dp1429
S'RS141_x5_0008.tif'
p1430
NssS'0009'
p1431
(dp1432
S'RS141_x5_0009.tif'
p1433
NssS'0016'
p1434
(dp1435
S'RS141_x5_0016.tif'
p1436
NssssS'RS140'
p1437
(dp1438
S'x1.25'
p1439
(dp1440
S'0017'
p1441
(dp1442
S'RS140_x1.25_0017.tif'
p1443
NssS'0022'
p1444
(dp1445
S'RS140_x1.25_0022.tif'
p1446
NssS'0015'
p1447
(dp1448
S'RS140_x1.25_0015.tif'
p1449
NssS'0014'
p1450
(dp1451
S'RS140_x1.25_0014.tif'
p1452
NssS'0013'
p1453
(dp1454
S'RS140_x1.25_0013.tif'
p1455
NssS'0012'
p1456
(dp1457
S'RS140_x1.25_0012.tif'
p1458
NssS'0011'
p1459
(dp1460
S'RS140_x1.25_0011.tif'
p1461
NssS'0005'
p1462
(dp1463
S'RS140_x1.25_0005.tif'
p1464
NssS'0035'
p1465
(dp1466
S'RS140_x1.25_0035.tif'
p1467
NssS'0034'
p1468
(dp1469
S'RS140_x1.25_0034.tif'
p1470
NssS'0036'
p1471
(dp1472
S'RS140_x1.25_0036.tif'
p1473
NssS'0031'
p1474
(dp1475
S'RS140_x1.25_0031.tif'
p1476
NssS'0006'
p1477
(dp1478
S'RS140_x1.25_0006.tif'
p1479
NssS'0033'
p1480
(dp1481
S'RS140_x1.25_0033.tif'
p1482
NssS'0032'
p1483
(dp1484
S'RS140_x1.25_0032.tif'
p1485
NssS'0021'
p1486
(dp1487
S'RS140_x1.25_0021.tif'
p1488
NssS'0010'
p1489
(dp1490
S'RS140_x1.25_0010.tif'
p1491
NssS'0026'
p1492
(dp1493
S'RS140_x1.25_0026.tif'
p1494
NssS'0001'
p1495
(dp1496
S'RS140_x1.25_0001.tif'
p1497
NssS'0024'
p1498
(dp1499
S'RS140_x1.25_0024.tif'
p1500
NssS'0003'
p1501
(dp1502
S'RS140_x1.25_0003.tif'
p1503
NssS'0004'
p1504
(dp1505
S'RS140_x1.25_0004.tif'
p1506
NssS'0023'
p1507
(dp1508
S'RS140_x1.25_0023.tif'
p1509
NssS'0020'
p1510
(dp1511
S'RS140_x1.25_0020.tif'
p1512
NssS'0007'
p1513
(dp1514
S'RS140_x1.25_0007.tif'
p1515
NssS'0000'
p1516
(dp1517
S'RS140_x1.25_0000.tif'
p1518
NssS'0027'
p1519
(dp1520
S'RS140_x1.25_0027.tif'
p1521
NssS'0002'
p1522
(dp1523
S'RS140_x1.25_0002.tif'
p1524
NssS'0025'
p1525
(dp1526
S'RS140_x1.25_0025.tif'
p1527
NssS'0028'
p1528
(dp1529
S'RS140_x1.25_0028.tif'
p1530
NssS'0029'
p1531
(dp1532
S'RS140_x1.25_0029.tif'
p1533
NssS'0008'
p1534
(dp1535
S'RS140_x1.25_0008.tif'
p1536
NssS'0009'
p1537
(dp1538
S'RS140_x1.25_0009.tif'
p1539
NssS'0030'
p1540
(dp1541
S'RS140_x1.25_0030.tif'
p1542
NssS'0019'
p1543
(dp1544
S'RS140_x1.25_0019.tif'
p1545
NssS'0018'
p1546
(dp1547
S'RS140_x1.25_0018.tif'
p1548
NssS'0016'
p1549
(dp1550
S'RS140_x1.25_0016.tif'
p1551
NsssS'x20'
p1552
(dp1553
S'0017'
p1554
(dp1555
S'RS140_x20_0017.tif'
p1556
NssS'0022'
p1557
(dp1558
S'RS140_x20_0022.tif'
p1559
NssS'0015'
p1560
(dp1561
S'RS140_x20_0015.tif'
p1562
NssS'0014'
p1563
(dp1564
S'RS140_x20_0014.tif'
p1565
NssS'0013'
p1566
(dp1567
S'RS140_x20_0013.tif'
p1568
NssS'0012'
p1569
(dp1570
S'RS140_x20_0012.tif'
p1571
NssS'0011'
p1572
(dp1573
S'RS140_x20_0011.tif'
p1574
NssS'0005'
p1575
(dp1576
S'RS140_x20_0005.tif'
p1577
NssS'0035'
p1578
(dp1579
S'RS140_x20_0035.tif'
p1580
NssS'0034'
p1581
(dp1582
S'RS140_x20_0034.tif'
p1583
NssS'0036'
p1584
(dp1585
S'RS140_x20_0036.tif'
p1586
NssS'0031'
p1587
(dp1588
S'RS140_x20_0031.tif'
p1589
NssS'0006'
p1590
(dp1591
S'RS140_x20_0006.tif'
p1592
NssS'0033'
p1593
(dp1594
S'RS140_x20_0033.tif'
p1595
NssS'0032'
p1596
(dp1597
S'RS140_x20_0032.tif'
p1598
NssS'0021'
p1599
(dp1600
S'RS140_x20_0021.tif'
p1601
NssS'0010'
p1602
(dp1603
S'RS140_x20_0010.tif'
p1604
NssS'0026'
p1605
(dp1606
S'RS140_x20_0026.tif'
p1607
NssS'0001'
p1608
(dp1609
S'RS140_x20_0001.tif'
p1610
NssS'0024'
p1611
(dp1612
S'RS140_x20_0024.tif'
p1613
NssS'0003'
p1614
(dp1615
S'RS140_x20_0003.tif'
p1616
NssS'0004'
p1617
(dp1618
S'RS140_x20_0004.tif'
p1619
NssS'0023'
p1620
(dp1621
S'RS140_x20_0023.tif'
p1622
NssS'0020'
p1623
(dp1624
S'RS140_x20_0020.tif'
p1625
NssS'0007'
p1626
(dp1627
S'RS140_x20_0007.tif'
p1628
NssS'0000'
p1629
(dp1630
S'RS140_x20_0000.tif'
p1631
NssS'0027'
p1632
(dp1633
S'RS140_x20_0027.tif'
p1634
NssS'0002'
p1635
(dp1636
S'RS140_x20_0002.tif'
p1637
NssS'0025'
p1638
(dp1639
S'RS140_x20_0025.tif'
p1640
NssS'0028'
p1641
(dp1642
S'RS140_x20_0028.tif'
p1643
NssS'0029'
p1644
(dp1645
S'RS140_x20_0029.tif'
p1646
NssS'0008'
p1647
(dp1648
S'RS140_x20_0008.tif'
p1649
NssS'0009'
p1650
(dp1651
S'RS140_x20_0009.tif'
p1652
NssS'0030'
p1653
(dp1654
S'RS140_x20_0030.tif'
p1655
NssS'0019'
p1656
(dp1657
S'RS140_x20_0019.tif'
p1658
NssS'0018'
p1659
(dp1660
S'RS140_x20_0018.tif'
p1661
NssS'0016'
p1662
(dp1663
S'RS140_x20_0016.tif'
p1664
NsssS'x5'
p1665
(dp1666
S'0017'
p1667
(dp1668
S'RS140_x5_0017.tif'
p1669
NssS'0022'
p1670
(dp1671
S'RS140_x5_0022.tif'
p1672
NssS'0015'
p1673
(dp1674
S'RS140_x5_0015.tif'
p1675
NssS'0014'
p1676
(dp1677
S'RS140_x5_0014.tif'
p1678
NssS'0013'
p1679
(dp1680
S'RS140_x5_0013.tif'
p1681
NssS'0012'
p1682
(dp1683
S'RS140_x5_0012.tif'
p1684
NssS'0011'
p1685
(dp1686
S'RS140_x5_0011.tif'
p1687
NssS'0005'
p1688
(dp1689
S'RS140_x5_0005.tif'
p1690
NssS'0035'
p1691
(dp1692
S'RS140_x5_0035.tif'
p1693
NssS'0034'
p1694
(dp1695
S'RS140_x5_0034.tif'
p1696
NssS'0036'
p1697
(dp1698
S'RS140_x5_0036.tif'
p1699
NssS'0031'
p1700
(dp1701
S'RS140_x5_0031.tif'
p1702
NssS'0006'
p1703
(dp1704
S'RS140_x5_0006.tif'
p1705
NssS'0033'
p1706
(dp1707
S'RS140_x5_0033.tif'
p1708
NssS'0032'
p1709
(dp1710
S'RS140_x5_0032.tif'
p1711
NssS'0021'
p1712
(dp1713
S'RS140_x5_0021.tif'
p1714
NssS'0010'
p1715
(dp1716
S'RS140_x5_0010.tif'
p1717
NssS'0026'
p1718
(dp1719
S'RS140_x5_0026.tif'
p1720
NssS'0001'
p1721
(dp1722
S'RS140_x5_0001.tif'
p1723
NssS'0024'
p1724
(dp1725
S'RS140_x5_0024.tif'
p1726
NssS'0003'
p1727
(dp1728
S'RS140_x5_0003.tif'
p1729
NssS'0004'
p1730
(dp1731
S'RS140_x5_0004.tif'
p1732
NssS'0023'
p1733
(dp1734
S'RS140_x5_0023.tif'
p1735
NssS'0020'
p1736
(dp1737
S'RS140_x5_0020.tif'
p1738
NssS'0007'
p1739
(dp1740
S'RS140_x5_0007.tif'
p1741
NssS'0000'
p1742
(dp1743
S'RS140_x5_0000.tif'
p1744
NssS'0027'
p1745
(dp1746
S'RS140_x5_0027.tif'
p1747
NssS'0002'
p1748
(dp1749
S'RS140_x5_0002.tif'
p1750
NssS'0025'
p1751
(dp1752
S'RS140_x5_0025.tif'
p1753
NssS'0028'
p1754
(dp1755
S'RS140_x5_0028.tif'
p1756
NssS'0029'
p1757
(dp1758
S'RS140_x5_0029.tif'
p1759
NssS'0008'
p1760
(dp1761
S'RS140_x5_0008.tif'
p1762
NssS'0009'
p1763
(dp1764
S'RS140_x5_0009.tif'
p1765
NssS'0030'
p1766
(dp1767
S'RS140_x5_0030.tif'
p1768
NssS'0019'
p1769
(dp1770
S'RS140_x5_0019.tif'
p1771
NssS'0018'
p1772
(dp1773
S'RS140_x5_0018.tif'
p1774
NssS'0016'
p1775
(dp1776
S'RS140_x5_0016.tif'
p1777
Nsssss.