(dp1
S'DavidData'
p2
(dp3
S'RI6'
p4
(dp5
S'x1.25'
p6
(dp7
S'0017'
p8
(dp9
S'RI6_x1.25_0017.tif'
p10
NssS'0004'
p11
(dp12
S'RI6_x1.25_0004.tif'
p13
NssS'0015'
p14
(dp15
S'RI6_x1.25_0015.tif'
p16
NssS'0014'
p17
(dp18
S'RI6_x1.25_0014.tif'
p19
NssS'0013'
p20
(dp21
S'RI6_x1.25_0013.tif'
p22
NssS'0012'
p23
(dp24
S'RI6_x1.25_0012.tif'
p25
NssS'0011'
p26
(dp27
S'RI6_x1.25_0011.tif'
p28
NssS'0005'
p29
(dp30
S'RI6_x1.25_0005.tif'
p31
NssS'0035'
p32
(dp33
S'RI6_x1.25_0035.tif'
p34
NssS'0034'
p35
(dp36
S'RI6_x1.25_0034.tif'
p37
NssS'0037'
p38
(dp39
S'RI6_x1.25_0037.tif'
p40
NssS'0026'
p41
(dp42
S'RI6_x1.25_0026.tif'
p43
NssS'0031'
p44
(dp45
S'RI6_x1.25_0031.tif'
p46
NssS'0006'
p47
(dp48
S'RI6_x1.25_0006.tif'
p49
NssS'0033'
p50
(dp51
S'RI6_x1.25_0033.tif'
p52
NssS'0032'
p53
(dp54
S'RI6_x1.25_0032.tif'
p55
NssS'0044'
p56
(dp57
S'RI6_x1.25_0044.tif'
p58
NssS'0021'
p59
(dp60
S'RI6_x1.25_0021.tif'
p61
NssS'0010'
p62
(dp63
S'RI6_x1.25_0010.tif'
p64
NssS'0039'
p65
(dp66
S'RI6_x1.25_0039.tif'
p67
NssS'0029'
p68
(dp69
S'RI6_x1.25_0029.tif'
p70
NssS'0038'
p71
(dp72
S'RI6_x1.25_0038.tif'
p73
NssS'0024'
p74
(dp75
S'RI6_x1.25_0024.tif'
p76
NssS'0003'
p77
(dp78
S'RI6_x1.25_0003.tif'
p79
NssS'0036'
p80
(dp81
S'RI6_x1.25_0036.tif'
p82
NssS'0047'
p83
(dp84
S'RI6_x1.25_0047.tif'
p85
NssS'0028'
p86
(dp87
S'RI6_x1.25_0028.tif'
p88
NssS'0048'
p89
(dp90
S'RI6_x1.25_0048.tif'
p91
NssS'0023'
p92
(dp93
S'RI6_x1.25_0023.tif'
p94
NssS'0020'
p95
(dp96
S'RI6_x1.25_0020.tif'
p97
NssS'0007'
p98
(dp99
S'RI6_x1.25_0007.tif'
p100
NssS'0000'
p101
(dp102
S'RI6_x1.25_0000.tif'
p103
NssS'0027'
p104
(dp105
S'RI6_x1.25_0027.tif'
p106
NssS'0002'
p107
(dp108
S'RI6_x1.25_0002.tif'
p109
NssS'0025'
p110
(dp111
S'RI6_x1.25_0025.tif'
p112
NssS'0040'
p113
(dp114
S'RI6_x1.25_0040.tif'
p115
NssS'0041'
p116
(dp117
S'RI6_x1.25_0041.tif'
p118
NssS'0042'
p119
(dp120
S'RI6_x1.25_0042.tif'
p121
NssS'0043'
p122
(dp123
S'RI6_x1.25_0043.tif'
p124
NssS'0008'
p125
(dp126
S'RI6_x1.25_0008.tif'
p127
NssS'0009'
p128
(dp129
S'RI6_x1.25_0009.tif'
p130
NssS'0046'
p131
(dp132
S'RI6_x1.25_0046.tif'
p133
NssS'0030'
p134
(dp135
S'RI6_x1.25_0030.tif'
p136
NssS'0022'
p137
(dp138
S'RI6_x1.25_0022.tif'
p139
NssS'0019'
p140
(dp141
S'RI6_x1.25_0019.tif'
p142
NssS'0018'
p143
(dp144
S'RI6_x1.25_0018.tif'
p145
NssS'0001'
p146
(dp147
S'RI6_x1.25_0001.tif'
p148
NssS'0016'
p149
(dp150
S'RI6_x1.25_0016.tif'
p151
NssS'0045'
p152
(dp153
S'RI6_x1.25_0045.tif'
p154
NsssS'x5'
p155
(dp156
S'0017'
p157
(dp158
S'RI6_x5_0017.tif'
p159
NssS'0004'
p160
(dp161
S'RI6_x5_0004.tif'
p162
NssS'0015'
p163
(dp164
S'RI6_x5_0015.tif'
p165
NssS'0014'
p166
(dp167
S'RI6_x5_0014.tif'
p168
NssS'0013'
p169
(dp170
S'RI6_x5_0013.tif'
p171
NssS'0012'
p172
(dp173
S'RI6_x5_0012.tif'
p174
NssS'0011'
p175
(dp176
S'RI6_x5_0011.tif'
p177
NssS'0005'
p178
(dp179
S'RI6_x5_0005.tif'
p180
NssS'0035'
p181
(dp182
S'RI6_x5_0035.tif'
p183
NssS'0034'
p184
(dp185
S'RI6_x5_0034.tif'
p186
NssS'0037'
p187
(dp188
S'RI6_x5_0037.tif'
p189
NssS'0026'
p190
(dp191
S'RI6_x5_0026.tif'
p192
NssS'0031'
p193
(dp194
S'RI6_x5_0031.tif'
p195
NssS'0006'
p196
(dp197
S'RI6_x5_0006.tif'
p198
NssS'0033'
p199
(dp200
S'RI6_x5_0033.tif'
p201
NssS'0032'
p202
(dp203
S'RI6_x5_0032.tif'
p204
NssS'0044'
p205
(dp206
S'RI6_x5_0044.tif'
p207
NssS'0021'
p208
(dp209
S'RI6_x5_0021.tif'
p210
NssS'0010'
p211
(dp212
S'RI6_x5_0010.tif'
p213
NssS'0039'
p214
(dp215
S'RI6_x5_0039.tif'
p216
NssS'0029'
p217
(dp218
S'RI6_x5_0029.tif'
p219
NssS'0038'
p220
(dp221
S'RI6_x5_0038.tif'
p222
NssS'0024'
p223
(dp224
S'RI6_x5_0024.tif'
p225
NssS'0003'
p226
(dp227
S'RI6_x5_0003.tif'
p228
NssS'0036'
p229
(dp230
S'RI6_x5_0036.tif'
p231
NssS'0047'
p232
(dp233
S'RI6_x5_0047.tif'
p234
NssS'0028'
p235
(dp236
S'RI6_x5_0028.tif'
p237
NssS'0048'
p238
(dp239
S'RI6_x5_0048.tif'
p240
NssS'0023'
p241
(dp242
S'RI6_x5_0023.tif'
p243
NssS'0020'
p244
(dp245
S'RI6_x5_0020.tif'
p246
NssS'0007'
p247
(dp248
S'RI6_x5_0007.tif'
p249
NssS'0000'
p250
(dp251
S'RI6_x5_0000.tif'
p252
NssS'0027'
p253
(dp254
S'RI6_x5_0027.tif'
p255
NssS'0002'
p256
(dp257
S'RI6_x5_0002.tif'
p258
NssS'0025'
p259
(dp260
S'RI6_x5_0025.tif'
p261
NssS'0040'
p262
(dp263
S'RI6_x5_0040.tif'
p264
NssS'0041'
p265
(dp266
S'RI6_x5_0041.tif'
p267
NssS'0042'
p268
(dp269
S'RI6_x5_0042.tif'
p270
NssS'0043'
p271
(dp272
S'RI6_x5_0043.tif'
p273
NssS'0008'
p274
(dp275
S'RI6_x5_0008.tif'
p276
NssS'0009'
p277
(dp278
S'RI6_x5_0009.tif'
p279
NssS'0046'
p280
(dp281
S'RI6_x5_0046.tif'
p282
NssS'0030'
p283
(dp284
S'RI6_x5_0030.tif'
p285
NssS'0022'
p286
(dp287
S'RI6_x5_0022.tif'
p288
NssS'0019'
p289
(dp290
S'RI6_x5_0019.tif'
p291
NssS'0018'
p292
(dp293
S'RI6_x5_0018.tif'
p294
NssS'0001'
p295
(dp296
S'RI6_x5_0001.tif'
p297
NssS'0016'
p298
(dp299
S'RI6_x5_0016.tif'
p300
NssS'0045'
p301
(dp302
S'RI6_x5_0045.tif'
p303
NssssS'RS76'
p304
(dp305
S'x5'
p306
(dp307
S'0017'
p308
(dp309
S'RS76_x5_0017.tif'
p310
NssS'0022'
p311
(dp312
S'RS76_x5_0022.tif'
p313
NssS'0015'
p314
(dp315
S'RS76_x5_0015.tif'
p316
NssS'0014'
p317
(dp318
S'RS76_x5_0014.tif'
p319
NssS'0013'
p320
(dp321
S'RS76_x5_0013.tif'
p322
NssS'0012'
p323
(dp324
S'RS76_x5_0012.tif'
p325
NssS'0011'
p326
(dp327
S'RS76_x5_0011.tif'
p328
NssS'0005'
p329
(dp330
S'RS76_x5_0005.tif'
p331
NssS'0035'
p332
(dp333
S'RS76_x5_0035.tif'
p334
NssS'0034'
p335
(dp336
S'RS76_x5_0034.tif'
p337
NssS'0031'
p338
(dp339
S'RS76_x5_0031.tif'
p340
NssS'0006'
p341
(dp342
S'RS76_x5_0006.tif'
p343
NssS'0033'
p344
(dp345
S'RS76_x5_0033.tif'
p346
NssS'0032'
p347
(dp348
S'RS76_x5_0032.tif'
p349
NssS'0021'
p350
(dp351
S'RS76_x5_0021.tif'
p352
NssS'0010'
p353
(dp354
S'RS76_x5_0010.tif'
p355
NssS'0026'
p356
(dp357
S'RS76_x5_0026.tif'
p358
NssS'0001'
p359
(dp360
S'RS76_x5_0001.tif'
p361
NssS'0024'
p362
(dp363
S'RS76_x5_0024.tif'
p364
NssS'0003'
p365
(dp366
S'RS76_x5_0003.tif'
p367
NssS'0004'
p368
(dp369
S'RS76_x5_0004.tif'
p370
NssS'0023'
p371
(dp372
S'RS76_x5_0023.tif'
p373
NssS'0020'
p374
(dp375
S'RS76_x5_0020.tif'
p376
NssS'0007'
p377
(dp378
S'RS76_x5_0007.tif'
p379
NssS'0000'
p380
(dp381
S'RS76_x5_0000.tif'
p382
NssS'0027'
p383
(dp384
S'RS76_x5_0027.tif'
p385
NssS'0002'
p386
(dp387
S'RS76_x5_0002.tif'
p388
NssS'0025'
p389
(dp390
S'RS76_x5_0025.tif'
p391
NssS'0028'
p392
(dp393
S'RS76_x5_0028.tif'
p394
NssS'0029'
p395
(dp396
S'RS76_x5_0029.tif'
p397
NssS'0008'
p398
(dp399
S'RS76_x5_0008.tif'
p400
NssS'0009'
p401
(dp402
S'RS76_x5_0009.tif'
p403
NssS'0030'
p404
(dp405
S'RS76_x5_0030.tif'
p406
NssS'0019'
p407
(dp408
S'RS76_x5_0019.tif'
p409
NssS'0018'
p410
(dp411
S'RS76_x5_0018.tif'
p412
NssS'0016'
p413
(dp414
S'RS76_x5_0016.tif'
p415
NssssS'RS155'
p416
(dp417
S'x5'
p418
(dp419
S'0017'
p420
(dp421
S'RS155_x5_0017.tif'
p422
NssS'0022'
p423
(dp424
S'RS155_x5_0022.tif'
p425
NssS'0015'
p426
(dp427
S'RS155_x5_0015.tif'
p428
NssS'0014'
p429
(dp430
S'RS155_x5_0014.tif'
p431
NssS'0013'
p432
(dp433
S'RS155_x5_0013.tif'
p434
NssS'0012'
p435
(dp436
S'RS155_x5_0012.tif'
p437
NssS'0011'
p438
(dp439
S'RS155_x5_0011.tif'
p440
NssS'0005'
p441
(dp442
S'RS155_x5_0005.tif'
p443
NssS'0035'
p444
(dp445
S'RS155_x5_0035.tif'
p446
NssS'0034'
p447
(dp448
S'RS155_x5_0034.tif'
p449
NssS'0037'
p450
(dp451
S'RS155_x5_0037.tif'
p452
NssS'0036'
p453
(dp454
S'RS155_x5_0036.tif'
p455
NssS'0031'
p456
(dp457
S'RS155_x5_0031.tif'
p458
NssS'0006'
p459
(dp460
S'RS155_x5_0006.tif'
p461
NssS'0033'
p462
(dp463
S'RS155_x5_0033.tif'
p464
NssS'0032'
p465
(dp466
S'RS155_x5_0032.tif'
p467
NssS'0021'
p468
(dp469
S'RS155_x5_0021.tif'
p470
NssS'0010'
p471
(dp472
S'RS155_x5_0010.tif'
p473
NssS'0026'
p474
(dp475
S'RS155_x5_0026.tif'
p476
NssS'0038'
p477
(dp478
S'RS155_x5_0038.tif'
p479
NssS'0024'
p480
(dp481
S'RS155_x5_0024.tif'
p482
NssS'0003'
p483
(dp484
S'RS155_x5_0003.tif'
p485
NssS'0004'
p486
(dp487
S'RS155_x5_0004.tif'
p488
NssS'0023'
p489
(dp490
S'RS155_x5_0023.tif'
p491
NssS'0020'
p492
(dp493
S'RS155_x5_0020.tif'
p494
NssS'0007'
p495
(dp496
S'RS155_x5_0007.tif'
p497
NssS'0000'
p498
(dp499
S'RS155_x5_0000.tif'
p500
NssS'0027'
p501
(dp502
S'RS155_x5_0027.tif'
p503
NssS'0002'
p504
(dp505
S'RS155_x5_0002.tif'
p506
NssS'0025'
p507
(dp508
S'RS155_x5_0025.tif'
p509
NssS'0028'
p510
(dp511
S'RS155_x5_0028.tif'
p512
NssS'0029'
p513
(dp514
S'RS155_x5_0029.tif'
p515
NssS'0008'
p516
(dp517
S'RS155_x5_0008.tif'
p518
NssS'0009'
p519
(dp520
S'RS155_x5_0009.tif'
p521
NssS'0030'
p522
(dp523
S'RS155_x5_0030.tif'
p524
NssS'0019'
p525
(dp526
S'RS155_x5_0019.tif'
p527
NssS'0018'
p528
(dp529
S'RS155_x5_0018.tif'
p530
NssS'0001'
p531
(dp532
S'RS155_x5_0001.tif'
p533
NssS'0039'
p534
(dp535
S'RS155_x5_0039.tif'
p536
NssS'0016'
p537
(dp538
S'RS155_x5_0016.tif'
p539
NssssS'RS141'
p540
(dp541
S'x1.25'
p542
(dp543
S'0017'
p544
(dp545
S'RS141_x1.25_0017.tif'
p546
NssS'0022'
p547
(dp548
S'RS141_x1.25_0022.tif'
p549
NssS'0015'
p550
(dp551
S'RS141_x1.25_0015.tif'
p552
NssS'0014'
p553
(dp554
S'RS141_x1.25_0014.tif'
p555
NssS'0013'
p556
(dp557
S'RS141_x1.25_0013.tif'
p558
NssS'0012'
p559
(dp560
S'RS141_x1.25_0012.tif'
p561
NssS'0011'
p562
(dp563
S'RS141_x1.25_0011.tif'
p564
NssS'0005'
p565
(dp566
S'RS141_x1.25_0005.tif'
p567
NssS'0006'
p568
(dp569
S'RS141_x1.25_0006.tif'
p570
NssS'0019'
p571
(dp572
S'RS141_x1.25_0019.tif'
p573
NssS'0018'
p574
(dp575
S'RS141_x1.25_0018.tif'
p576
NssS'0021'
p577
(dp578
S'RS141_x1.25_0021.tif'
p579
NssS'0024'
p580
(dp581
S'RS141_x1.25_0024.tif'
p582
NssS'0010'
p583
(dp584
S'RS141_x1.25_0010.tif'
p585
NssS'0004'
p586
(dp587
S'RS141_x1.25_0004.tif'
p588
NssS'0023'
p589
(dp590
S'RS141_x1.25_0023.tif'
p591
NssS'0020'
p592
(dp593
S'RS141_x1.25_0020.tif'
p594
NssS'0007'
p595
(dp596
S'RS141_x1.25_0007.tif'
p597
NssS'0000'
p598
(dp599
S'RS141_x1.25_0000.tif'
p600
NssS'0001'
p601
(dp602
S'RS141_x1.25_0001.tif'
p603
NssS'0002'
p604
(dp605
S'RS141_x1.25_0002.tif'
p606
NssS'0003'
p607
(dp608
S'RS141_x1.25_0003.tif'
p609
NssS'0008'
p610
(dp611
S'RS141_x1.25_0008.tif'
p612
NssS'0009'
p613
(dp614
S'RS141_x1.25_0009.tif'
p615
NssS'0016'
p616
(dp617
S'RS141_x1.25_0016.tif'
p618
NsssS'x20'
p619
(dp620
S'0017'
p621
(dp622
S'RS141_x20_0017.tif'
p623
NssS'0022'
p624
(dp625
S'RS141_x20_0022.tif'
p626
NssS'0015'
p627
(dp628
S'RS141_x20_0015.tif'
p629
NssS'0014'
p630
(dp631
S'RS141_x20_0014.tif'
p632
NssS'0013'
p633
(dp634
S'RS141_x20_0013.tif'
p635
NssS'0012'
p636
(dp637
S'RS141_x20_0012.tif'
p638
NssS'0011'
p639
(dp640
S'RS141_x20_0011.tif'
p641
NssS'0005'
p642
(dp643
S'RS141_x20_0005.tif'
p644
NssS'0006'
p645
(dp646
S'RS141_x20_0006.tif'
p647
NssS'0019'
p648
(dp649
S'RS141_x20_0019.tif'
p650
NssS'0018'
p651
(dp652
S'RS141_x20_0018.tif'
p653
NssS'0021'
p654
(dp655
S'RS141_x20_0021.tif'
p656
NssS'0024'
p657
(dp658
S'RS141_x20_0024.tif'
p659
NssS'0010'
p660
(dp661
S'RS141_x20_0010.tif'
p662
NssS'0004'
p663
(dp664
S'RS141_x20_0004.tif'
p665
NssS'0023'
p666
(dp667
S'RS141_x20_0023.tif'
p668
NssS'0020'
p669
(dp670
S'RS141_x20_0020.tif'
p671
NssS'0007'
p672
(dp673
S'RS141_x20_0007.tif'
p674
NssS'0000'
p675
(dp676
S'RS141_x20_0000.tif'
p677
NssS'0001'
p678
(dp679
S'RS141_x20_0001.tif'
p680
NssS'0002'
p681
(dp682
S'RS141_x20_0002.tif'
p683
NssS'0003'
p684
(dp685
S'RS141_x20_0003.tif'
p686
NssS'0008'
p687
(dp688
S'RS141_x20_0008.tif'
p689
NssS'0009'
p690
(dp691
S'RS141_x20_0009.tif'
p692
NssS'0016'
p693
(dp694
S'RS141_x20_0016.tif'
p695
NsssS'x5'
p696
(dp697
S'0017'
p698
(dp699
S'RS141_x5_0017.tif'
p700
NssS'0022'
p701
(dp702
S'RS141_x5_0022.tif'
p703
NssS'0015'
p704
(dp705
S'RS141_x5_0015.tif'
p706
NssS'0014'
p707
(dp708
S'RS141_x5_0014.tif'
p709
NssS'0013'
p710
(dp711
S'RS141_x5_0013.tif'
p712
NssS'0012'
p713
(dp714
S'RS141_x5_0012.tif'
p715
NssS'0011'
p716
(dp717
S'RS141_x5_0011.tif'
p718
NssS'0005'
p719
(dp720
S'RS141_x5_0005.tif'
p721
NssS'0006'
p722
(dp723
S'RS141_x5_0006.tif'
p724
NssS'0019'
p725
(dp726
S'RS141_x5_0019.tif'
p727
NssS'0018'
p728
(dp729
S'RS141_x5_0018.tif'
p730
NssS'0021'
p731
(dp732
S'RS141_x5_0021.tif'
p733
NssS'0024'
p734
(dp735
S'RS141_x5_0024.tif'
p736
NssS'0010'
p737
(dp738
S'RS141_x5_0010.tif'
p739
NssS'0004'
p740
(dp741
S'RS141_x5_0004.tif'
p742
NssS'0023'
p743
(dp744
S'RS141_x5_0023.tif'
p745
NssS'0020'
p746
(dp747
S'RS141_x5_0020.tif'
p748
NssS'0007'
p749
(dp750
S'RS141_x5_0007.tif'
p751
NssS'0000'
p752
(dp753
S'nissl324'
p754
(dp755
S'pipelineResults'
p756
(dp757
S'RS141_x5_0000_nissl324_texHist.npy'
p758
NsS'RS141_x5_0000_nissl324_labelmap.png'
p759
NsS'RS141_x5_0000_nissl324_cropImg.tif'
p760
NsS'RS141_x5_0000_nissl324_texMap.npy'
p761
NsS'RS141_x5_0000_nissl324_segmentation.tif'
p762
NsS'RS141_x5_0000_nissl324_texMap.tif'
p763
NsS'RS141_x5_0000_nissl324_labelmap.npy'
p764
NsS'RS141_x5_0000_nissl324_labels.npy'
p765
NsS'RS141_x5_0000_nissl324_cropImg.png'
p766
NsS'RS141_x5_0000_nissl324_segmentation.npy'
p767
NsS'RS141_x5_0000_nissl324_segmentation.png'
p768
NsS'RS141_x5_0000_nissl324_texMap.png'
p769
NsS'stages'
p770
(dp771
S'sigscore9.png'
p772
NsS'sigscore7.png'
p773
NsS'sigscore3.png'
p774
NsS'curr_cluster3.png'
p775
NsS'grow1.png'
p776
NsS'grow0.png'
p777
NsS'grow2.png'
p778
NsS'curr_cluster9.png'
p779
NsS'grow9.png'
p780
NsS'grow8.png'
p781
NsS'grow5.png'
p782
NsS'grow4.png'
p783
NsS'grow6.png'
p784
NsS'weight8.png'
p785
NsS'weight5.png'
p786
NsS'weight7.png'
p787
NsS'curr_cluster5.png'
p788
NsS'sigscore6.png'
p789
NsS'sigscore4.png'
p790
NsS'grow7.png'
p791
NsS'curr_cluster6.png'
p792
NsS'curr_cluster4.png'
p793
NsS'weight6.png'
p794
NsS'weight1.png'
p795
NsS'weight2.png'
p796
NsS'weight3.png'
p797
NsS'sigscore8.png'
p798
NsS'sigscore5.png'
p799
NsS'sigscore2.png'
p800
NsS'sigscore1.png'
p801
NsS'sigscore0.png'
p802
NsS'curr_cluster2.png'
p803
NsS'curr_cluster1.png'
p804
NsS'curr_cluster0.png'
p805
NsS'grow3.png'
p806
NsS'weight4.png'
p807
NsS'curr_cluster7.png'
p808
NsS'curr_cluster8.png'
p809
NsS'weight0.png'
p810
NsS'weight9.png'
p811
NssS'RS141_x5_0000_nissl324_labelmap.tif'
p812
NsS'RS141_x5_0000_nissl324_dirHist.npy'
p813
NsS'RS141_x5_0000_nissl324_features.npy'
p814
NsssS'RS141_x5_0000.tif'
p815
NssS'0001'
p816
(dp817
S'redNissl'
p818
(dp819
S'labelings'
p820
(dp821
S'RS141_x5_0001_redNissl_yuncong_10072014180733_preview.png'
p822
NsS'RS141_x5_0001_redNissl_labelnames.json'
p823
NsS'RS141_x5_0001_redNissl_anon_10092014074731.pkl'
p824
NsS'RS141_x5_0001_redNissl_sean_10022014050443.pkl'
p825
NsS'RS141_x5_0001_redNissl_anon_10092014074709.pkl'
p826
NsS'RS141_x5_0001_redNissl_anon_10092014074731_preview.png'
p827
NsS'RS141_x5_0001_redNissl_yuncong_10072014180733.pkl'
p828
NssS'pipelineResults'
p829
(dp830
S'RS141_x5_0001_redNissl_neighbors.pkl'
p831
NsS'RS141_x5_0001_redNissl_texHist.npy'
p832
NsS'RS141_x5_0001_redNissl_labelmap.png'
p833
NsS'RS141_x5_0001_redNissl_labelmap.npy'
p834
NsS'RS141_x5_0001_redNissl_cropImg.tif'
p835
NsS'RS141_x5_0001_redNissl_yuncong_141002050817.pkl'
p836
NsS'RS141_x5_0001_redNissl_cropImg.png'
p837
NsS'RS141_x5_0001_redNissl_segmentation.tif'
p838
NsS'RS141_x5_0001_redNissl_bg.npy'
p839
NsS'RS141_x5_0001_redNissl_segmentation.npy'
p840
NsS'RS141_x5_0001_redNissl_labels.npy'
p841
NsS'RS141_x5_0001_redNissl_labeling.pkl'
p842
NsS'RS141_x5_0001_redNissl_segmentation.png'
p843
NsS'RS141_x5_0001_redNissl_texMap.png'
p844
NsS'RS141_x5_0001_redNissl_dirHist.npy'
p845
NsS'RS141_x5_0001_redNissl_labelmap.tif'
p846
NsS'RS141_x5_0001_redNissl_features.npy'
p847
NsS'RS141_x5_0001_redNissl_texMap.npy'
p848
NsS'RS141_x5_0001_redNissl_texMap.tif'
p849
NsS'RS141_x5_0001_redNissl_mask.npy'
p850
NsS'RS141_x5_0001_redNissl_fg.npy'
p851
NsS'stages'
p852
(dp853
S'sigscore9.png'
p854
NsS'sigscore7.png'
p855
NsS'sigscore3.png'
p856
NsS'curr_cluster3.png'
p857
NsS'grow1.png'
p858
NsS'grow0.png'
p859
NsS'grow2.png'
p860
NsS'curr_cluster9.png'
p861
NsS'grow9.png'
p862
NsS'grow8.png'
p863
NsS'grow5.png'
p864
NsS'grow4.png'
p865
NsS'grow6.png'
p866
NsS'weight8.png'
p867
NsS'weight5.png'
p868
NsS'weight7.png'
p869
NsS'curr_cluster5.png'
p870
NsS'sigscore6.png'
p871
NsS'sigscore4.png'
p872
NsS'grow7.png'
p873
NsS'curr_cluster6.png'
p874
NsS'curr_cluster4.png'
p875
NsS'weight6.png'
p876
NsS'weight1.png'
p877
NsS'weight2.png'
p878
NsS'weight3.png'
p879
NsS'sigscore8.png'
p880
NsS'sigscore5.png'
p881
NsS'sigscore2.png'
p882
NsS'sigscore1.png'
p883
NsS'sigscore0.png'
p884
NsS'curr_cluster2.png'
p885
NsS'curr_cluster1.png'
p886
NsS'curr_cluster0.png'
p887
NsS'grow3.png'
p888
NsS'weight4.png'
p889
NsS'curr_cluster7.png'
p890
NsS'curr_cluster8.png'
p891
NsS'weight0.png'
p892
NsS'weight9.png'
p893
NssssS'RS141_x5_0001.tif'
p894
NssS'0002'
p895
(dp896
S'RS141_x5_0002.tif'
p897
NssS'0003'
p898
(dp899
S'RS141_x5_0003.tif'
p900
NssS'0008'
p901
(dp902
S'RS141_x5_0008.tif'
p903
NssS'0009'
p904
(dp905
S'RS141_x5_0009.tif'
p906
NssS'0016'
p907
(dp908
S'RS141_x5_0016.tif'
p909
Nsssss.