(lp1
(dp2
S'available_res'
p3
(lp4
S'x1.25'
p5
aS'x20'
p6
aS'x5'
p7
asS'sections'
p8
(lp9
(dp10
S'index'
p11
I17
sa(dp12
g11
I22
sa(dp13
g11
I15
sa(dp14
g11
I14
sa(dp15
g11
I13
sa(dp16
g11
I12
sa(dp17
g11
I11
sa(dp18
g11
I5
sa(dp19
g11
I31
sa(dp20
g11
I6
sa(dp21
g11
I33
sa(dp22
g11
I32
sa(dp23
g11
I21
sa(dp24
g11
I10
sa(dp25
g11
I26
sa(dp26
g11
I1
sa(dp27
g11
I24
sa(dp28
g11
I3
sa(dp29
g11
I4
sa(dp30
g11
I23
sa(dp31
g11
I20
sa(dp32
g11
I7
sa(dp33
g11
I0
sa(dp34
g11
I27
sa(dp35
g11
I2
sa(dp36
g11
I25
sa(dp37
g11
I28
sa(dp38
g11
I29
sa(dp39
g11
I8
sa(dp40
g11
I9
sa(dp41
g11
I30
sa(dp42
g11
I19
sa(dp43
g11
I18
sa(dp44
g11
I16
sasS'name'
p45
S'RS139'
p46
sa(dp47
g3
(lp48
S'x1.25'
p49
aS'x5'
p50
asg8
(lp51
(dp52
g11
I17
sa(dp53
g11
I4
sa(dp54
g11
I15
sa(dp55
g11
I14
sa(dp56
g11
I13
sa(dp57
g11
I12
sa(dp58
g11
I11
sa(dp59
g11
I5
sa(dp60
g11
I35
sa(dp61
g11
I34
sa(dp62
g11
I37
sa(dp63
g11
I26
sa(dp64
g11
I31
sa(dp65
g11
I6
sa(dp66
g11
I33
sa(dp67
g11
I32
sa(dp68
g11
I44
sa(dp69
g11
I21
sa(dp70
g11
I10
sa(dp71
g11
I39
sa(dp72
g11
I29
sa(dp73
g11
I38
sa(dp74
g11
I24
sa(dp75
g11
I3
sa(dp76
g11
I36
sa(dp77
g11
I47
sa(dp78
g11
I28
sa(dp79
g11
I48
sa(dp80
g11
I23
sa(dp81
g11
I20
sa(dp82
g11
I7
sa(dp83
g11
I0
sa(dp84
g11
I27
sa(dp85
g11
I2
sa(dp86
g11
I25
sa(dp87
g11
I40
sa(dp88
g11
I41
sa(dp89
g11
I42
sa(dp90
g11
I43
sa(dp91
g11
I8
sa(dp92
g11
I9
sa(dp93
g11
I46
sa(dp94
g11
I30
sa(dp95
g11
I22
sa(dp96
g11
I19
sa(dp97
g11
I18
sa(dp98
g11
I1
sa(dp99
g11
I16
sa(dp100
g11
I45
sasg45
S'RI6'
p101
sa(dp102
g3
(lp103
S'x1.25'
p104
aS'x20'
p105
aS'x5'
p106
asg8
(lp107
(dp108
g11
I17
sa(dp109
g11
I22
sa(dp110
g11
I15
sa(dp111
g11
I14
sa(dp112
g11
I13
sa(dp113
g11
I12
sa(dp114
g11
I11
sa(dp115
g11
I5
sa(dp116
g11
I6
sa(dp117
g11
I19
sa(dp118
g11
I18
sa(dp119
g11
I21
sa(dp120
g11
I10
sa(dp121
g11
I26
sa(dp122
g11
I1
sa(dp123
g11
I24
sa(dp124
g11
I3
sa(dp125
g11
I4
sa(dp126
g11
I23
sa(dp127
g11
I20
sa(dp128
g11
I7
sa(dp129
g11
I0
sa(dp130
g11
I27
sa(dp131
g11
I2
sa(dp132
g11
I25
sa(dp133
g11
I8
sa(dp134
g11
I9
sa(dp135
g11
I16
sasg45
S'RS58'
p136
sa(dp137
g3
(lp138
S'x5'
p139
asg8
(lp140
(dp141
g11
I17
sa(dp142
g11
I22
sa(dp143
g11
I15
sa(dp144
g11
I14
sa(dp145
g11
I13
sa(dp146
g11
I12
sa(dp147
g11
I11
sa(dp148
g11
I5
sa(dp149
g11
I35
sa(dp150
g11
I34
sa(dp151
g11
I31
sa(dp152
g11
I6
sa(dp153
g11
I33
sa(dp154
g11
I32
sa(dp155
g11
I21
sa(dp156
g11
I10
sa(dp157
g11
I26
sa(dp158
g11
I1
sa(dp159
g11
I24
sa(dp160
g11
I3
sa(dp161
g11
I4
sa(dp162
g11
I23
sa(dp163
g11
I20
sa(dp164
g11
I7
sa(dp165
g11
I0
sa(dp166
g11
I27
sa(dp167
g11
I2
sa(dp168
g11
I25
sa(dp169
g11
I28
sa(dp170
g11
I29
sa(dp171
g11
I8
sa(dp172
g11
I9
sa(dp173
g11
I30
sa(dp174
g11
I19
sa(dp175
g11
I18
sa(dp176
g11
I16
sasg45
S'RS76'
p177
sa(dp178
g3
(lp179
S'x5'
p180
asg8
(lp181
(dp182
g11
I17
sa(dp183
g11
I22
sa(dp184
g11
I15
sa(dp185
g11
I14
sa(dp186
g11
I13
sa(dp187
g11
I12
sa(dp188
g11
I11
sa(dp189
g11
I5
sa(dp190
g11
I35
sa(dp191
g11
I34
sa(dp192
g11
I37
sa(dp193
g11
I36
sa(dp194
g11
I31
sa(dp195
g11
I6
sa(dp196
g11
I33
sa(dp197
g11
I32
sa(dp198
g11
I21
sa(dp199
g11
I10
sa(dp200
g11
I26
sa(dp201
g11
I38
sa(dp202
g11
I24
sa(dp203
g11
I3
sa(dp204
g11
I4
sa(dp205
g11
I23
sa(dp206
g11
I20
sa(dp207
g11
I7
sa(dp208
g11
I0
sa(dp209
g11
I27
sa(dp210
g11
I2
sa(dp211
g11
I25
sa(dp212
g11
I28
sa(dp213
g11
I29
sa(dp214
g11
I8
sa(dp215
g11
I9
sa(dp216
g11
I30
sa(dp217
g11
I19
sa(dp218
g11
I18
sa(dp219
g11
I1
sa(dp220
g11
I39
sa(dp221
g11
I16
sasg45
S'RS155'
p222
sa(dp223
g3
(lp224
S'x1.25'
p225
aS'x20'
p226
aS'x5'
p227
asg8
(lp228
(dp229
g11
I17
sa(dp230
g11
I22
sa(dp231
g11
I15
sa(dp232
g11
I14
sa(dp233
g11
I13
sa(dp234
g11
I12
sa(dp235
g11
I11
sa(dp236
g11
I5
sa(dp237
g11
I6
sa(dp238
g11
I19
sa(dp239
g11
I18
sa(dp240
g11
I21
sa(dp241
g11
I24
sa(dp242
g11
I10
sa(dp243
g11
I4
sa(dp244
g11
I23
sa(dp245
g11
I20
sa(dp246
g11
I7
sa(dp247
g11
I0
sa(dp248
g11
I1
sa(dp249
g11
I2
sa(dp250
g11
I3
sa(dp251
g11
I8
sa(dp252
g11
I9
sa(dp253
g11
I16
sasg45
S'RS141'
p254
sa(dp255
g3
(lp256
S'x1.25'
p257
aS'x20'
p258
aS'x5'
p259
asg8
(lp260
(dp261
g11
I17
sa(dp262
g11
I22
sa(dp263
g11
I15
sa(dp264
g11
I14
sa(dp265
g11
I13
sa(dp266
g11
I12
sa(dp267
g11
I11
sa(dp268
g11
I5
sa(dp269
g11
I35
sa(dp270
g11
I34
sa(dp271
g11
I36
sa(dp272
g11
I31
sa(dp273
g11
I6
sa(dp274
g11
I33
sa(dp275
g11
I32
sa(dp276
g11
I21
sa(dp277
g11
I10
sa(dp278
g11
I26
sa(dp279
g11
I1
sa(dp280
g11
I24
sa(dp281
g11
I3
sa(dp282
g11
I4
sa(dp283
g11
I23
sa(dp284
g11
I20
sa(dp285
g11
I7
sa(dp286
g11
I0
sa(dp287
g11
I27
sa(dp288
g11
I2
sa(dp289
g11
I25
sa(dp290
g11
I28
sa(dp291
g11
I29
sa(dp292
g11
I8
sa(dp293
g11
I9
sa(dp294
g11
I30
sa(dp295
g11
I19
sa(dp296
g11
I18
sa(dp297
g11
I16
sasg45
S'RS140'
p298
sa.